(lp0
(S'elfflags'
p1
ccopy_reg
_reconstructor
p2
(cino.utils
SpaceList
p3
c__builtin__
list
p4
(lp5
S'-Os'
p6
aS'-Wl,--gc-sections'
p7
aS'-mmcu=atmega32u4'
p8
atp9
Rp10
tp11
a(S'cxx'
p12
S'/usr/bin/avr-g++'
p13
tp14
a(S'build_dir'
p15
S'.build/leonardo'
p16
tp17
a(S'avrdude'
p18
S'/usr/share/arduino/hardware/tools/avrdude'
p19
tp20
a(S'ar'
p21
S'/usr/bin/avr-ar'
p22
tp23
a(S'names'
p24
(dp25
S'cpp'
p26
S'%s.cpp'
p27
sS'obj'
p28
S'%s.o'
p29
sS'lib'
p30
S'lib%s.a'
p31
sS'deps'
p32
S'%s.d'
p33
stp34
a(S'serial'
p35
S'/usr/bin/picocom'
p36
tp37
a(S'objcopy'
p38
S'/usr/bin/avr-objcopy'
p39
tp40
a(S'arduino_lib_version'
p41
g2
(cino.environment
Version
p42
c__builtin__
tuple
p43
(I1
I0
tp44
tp45
Rp46
tp47
a(S'used_libs'
p48
(lp49
S'/usr/share/arduino/hardware/arduino/cores/arduino'
p50
atp51
a(S'arduino_libraries_dir'
p52
S'/usr/share/arduino/libraries'
p53
tp54
a(S'board_models'
p55
cino.environment
BoardModels
p56
((lp57
(lp58
S'uno'
p59
a(dp60
S'build'
p61
(dp62
S'core'
p63
S'arduino'
p64
sS'mcu'
p65
S'atmega328p'
p66
sS'f_cpu'
p67
S'16000000L'
p68
sS'variant'
p69
S'standard'
p70
ssS'bootloader'
p71
(dp72
S'extended_fuses'
p73
S'0x05'
p74
sS'high_fuses'
p75
S'0xde'
p76
sS'low_fuses'
p77
S'0xff'
p78
sS'lock_bits'
p79
S'0x0F'
p80
sS'file'
p81
S'optiboot_atmega328.hex'
p82
sS'path'
p83
S'optiboot'
p84
sS'unlock_bits'
p85
S'0x3F'
p86
ssS'upload'
p87
(dp88
S'protocol'
p89
S'arduino'
p90
sS'maximum_size'
p91
S'32256'
p92
sS'speed'
p93
S'115200'
p94
ssS'name'
p95
S'Arduino Uno'
p96
saa(lp97
S'atmega328'
p98
a(dp99
S'build'
p100
(dp101
S'core'
p102
S'arduino'
p103
sS'mcu'
p104
S'atmega328p'
p105
sS'f_cpu'
p106
S'16000000L'
p107
sS'variant'
p108
S'standard'
p109
ssS'bootloader'
p110
(dp111
S'extended_fuses'
p112
S'0x05'
p113
sS'high_fuses'
p114
S'0xDA'
p115
sS'low_fuses'
p116
S'0xFF'
p117
sS'lock_bits'
p118
S'0x0F'
p119
sS'file'
p120
S'ATmegaBOOT_168_atmega328.hex'
p121
sS'path'
p122
S'atmega'
p123
sS'unlock_bits'
p124
S'0x3F'
p125
ssS'upload'
p126
(dp127
S'protocol'
p128
S'arduino'
p129
sS'maximum_size'
p130
S'30720'
p131
sS'speed'
p132
S'57600'
p133
ssS'name'
p134
S'Arduino Duemilanove w/ ATmega328'
p135
saa(lp136
S'diecimila'
p137
a(dp138
S'build'
p139
(dp140
S'core'
p141
S'arduino'
p142
sS'mcu'
p143
S'atmega168'
p144
sS'f_cpu'
p145
S'16000000L'
p146
sS'variant'
p147
S'standard'
p148
ssS'bootloader'
p149
(dp150
S'extended_fuses'
p151
S'0x00'
p152
sS'high_fuses'
p153
S'0xdd'
p154
sS'low_fuses'
p155
S'0xff'
p156
sS'lock_bits'
p157
S'0x0F'
p158
sS'file'
p159
S'ATmegaBOOT_168_diecimila.hex'
p160
sS'path'
p161
S'atmega'
p162
sS'unlock_bits'
p163
S'0x3F'
p164
ssS'upload'
p165
(dp166
S'protocol'
p167
S'arduino'
p168
sS'maximum_size'
p169
S'14336'
p170
sS'speed'
p171
S'19200'
p172
ssS'name'
p173
S'Arduino Diecimila or Duemilanove w/ ATmega168'
p174
saa(lp175
S'nano328'
p176
a(dp177
S'build'
p178
(dp179
S'core'
p180
S'arduino'
p181
sS'mcu'
p182
S'atmega328p'
p183
sS'f_cpu'
p184
S'16000000L'
p185
sS'variant'
p186
S'eightanaloginputs'
p187
ssS'bootloader'
p188
(dp189
S'extended_fuses'
p190
S'0x05'
p191
sS'high_fuses'
p192
S'0xDA'
p193
sS'low_fuses'
p194
S'0xFF'
p195
sS'lock_bits'
p196
S'0x0F'
p197
sS'file'
p198
S'ATmegaBOOT_168_atmega328.hex'
p199
sS'path'
p200
S'atmega'
p201
sS'unlock_bits'
p202
S'0x3F'
p203
ssS'upload'
p204
(dp205
S'protocol'
p206
S'arduino'
p207
sS'maximum_size'
p208
S'30720'
p209
sS'speed'
p210
S'57600'
p211
ssS'name'
p212
S'Arduino Nano w/ ATmega328'
p213
saa(lp214
S'nano'
p215
a(dp216
S'build'
p217
(dp218
S'core'
p219
S'arduino'
p220
sS'mcu'
p221
S'atmega168'
p222
sS'f_cpu'
p223
S'16000000L'
p224
sS'variant'
p225
S'eightanaloginputs'
p226
ssS'bootloader'
p227
(dp228
S'extended_fuses'
p229
S'0x00'
p230
sS'high_fuses'
p231
S'0xdd'
p232
sS'low_fuses'
p233
S'0xff'
p234
sS'lock_bits'
p235
S'0x0F'
p236
sS'file'
p237
S'ATmegaBOOT_168_diecimila.hex'
p238
sS'path'
p239
S'atmega'
p240
sS'unlock_bits'
p241
S'0x3F'
p242
ssS'upload'
p243
(dp244
S'protocol'
p245
S'arduino'
p246
sS'maximum_size'
p247
S'14336'
p248
sS'speed'
p249
S'19200'
p250
ssS'name'
p251
S'Arduino Nano w/ ATmega168'
p252
saa(lp253
S'mega2560'
p254
a(dp255
S'build'
p256
(dp257
S'core'
p258
S'arduino'
p259
sS'mcu'
p260
S'atmega2560'
p261
sS'f_cpu'
p262
S'16000000L'
p263
sS'variant'
p264
S'mega'
p265
ssS'bootloader'
p266
(dp267
S'extended_fuses'
p268
S'0xFD'
p269
sS'high_fuses'
p270
S'0xD8'
p271
sS'low_fuses'
p272
S'0xFF'
p273
sS'lock_bits'
p274
S'0x0F'
p275
sS'file'
p276
S'stk500boot_v2_mega2560.hex'
p277
sS'path'
p278
S'stk500v2'
p279
sS'unlock_bits'
p280
S'0x3F'
p281
ssS'upload'
p282
(dp283
S'protocol'
p284
S'stk500v2'
p285
sS'maximum_size'
p286
S'258048'
p287
sS'speed'
p288
S'115200'
p289
ssS'name'
p290
S'Arduino Mega 2560 or Mega ADK'
p291
saa(lp292
S'mega'
p293
a(dp294
S'build'
p295
(dp296
S'core'
p297
S'arduino'
p298
sS'mcu'
p299
S'atmega1280'
p300
sS'f_cpu'
p301
S'16000000L'
p302
sS'variant'
p303
S'mega'
p304
ssS'bootloader'
p305
(dp306
S'extended_fuses'
p307
S'0xF5'
p308
sS'high_fuses'
p309
S'0xDA'
p310
sS'low_fuses'
p311
S'0xFF'
p312
sS'lock_bits'
p313
S'0x0F'
p314
sS'file'
p315
S'ATmegaBOOT_168_atmega1280.hex'
p316
sS'path'
p317
S'atmega'
p318
sS'unlock_bits'
p319
S'0x3F'
p320
ssS'upload'
p321
(dp322
S'protocol'
p323
S'arduino'
p324
sS'maximum_size'
p325
S'126976'
p326
sS'speed'
p327
S'57600'
p328
ssS'name'
p329
S'Arduino Mega (ATmega1280)'
p330
saa(lp331
S'leonardo'
p332
a(dp333
S'build'
p334
(dp335
S'core'
p336
S'arduino'
p337
sS'f_cpu'
p338
S'16000000L'
p339
sS'vid'
p340
S'0x2341'
p341
sS'pid'
p342
S'0x8036'
p343
sS'variant'
p344
S'leonardo'
p345
sS'mcu'
p346
S'atmega32u4'
p347
ssS'bootloader'
p348
(dp349
S'extended_fuses'
p350
S'0xcb'
p351
sS'high_fuses'
p352
S'0xd8'
p353
sS'low_fuses'
p354
S'0xff'
p355
sS'lock_bits'
p356
S'0x2F'
p357
sS'file'
p358
S'Caterina-Leonardo.hex'
p359
sS'path'
p360
S'caterina'
p361
sS'unlock_bits'
p362
S'0x3F'
p363
ssS'upload'
p364
(dp365
S'protocol'
p366
S'avr109'
p367
sS'maximum_size'
p368
S'28672'
p369
sS'speed'
p370
S'57600'
p371
sS'disable_flushing'
p372
S'true'
p373
ssS'name'
p374
S'Arduino Leonardo'
p375
saa(lp376
S'mini328'
p377
a(dp378
S'build'
p379
(dp380
S'core'
p381
S'arduino'
p382
sS'mcu'
p383
S'atmega328p'
p384
sS'f_cpu'
p385
S'16000000L'
p386
sS'variant'
p387
S'eightanaloginputs'
p388
ssS'bootloader'
p389
(dp390
S'extended_fuses'
p391
S'0x05'
p392
sS'high_fuses'
p393
S'0xd8'
p394
sS'low_fuses'
p395
S'0xff'
p396
sS'lock_bits'
p397
S'0x0F'
p398
sS'file'
p399
S'optiboot_atmega328-Mini.hex'
p400
sS'path'
p401
S'optiboot'
p402
sS'unlock_bits'
p403
S'0x3F'
p404
ssS'upload'
p405
(dp406
S'protocol'
p407
S'arduino'
p408
sS'maximum_size'
p409
S'28672'
p410
sS'speed'
p411
S'115200'
p412
ssS'name'
p413
S'Arduino Mini w/ ATmega328'
p414
saa(lp415
S'mini'
p416
a(dp417
S'build'
p418
(dp419
S'core'
p420
S'arduino'
p421
sS'mcu'
p422
S'atmega168'
p423
sS'f_cpu'
p424
S'16000000L'
p425
sS'variant'
p426
S'eightanaloginputs'
p427
ssS'bootloader'
p428
(dp429
S'extended_fuses'
p430
S'0x00'
p431
sS'high_fuses'
p432
S'0xdd'
p433
sS'low_fuses'
p434
S'0xff'
p435
sS'lock_bits'
p436
S'0x0F'
p437
sS'file'
p438
S'ATmegaBOOT_168_ng.hex'
p439
sS'path'
p440
S'atmega'
p441
sS'unlock_bits'
p442
S'0x3F'
p443
ssS'upload'
p444
(dp445
S'protocol'
p446
S'arduino'
p447
sS'maximum_size'
p448
S'14336'
p449
sS'speed'
p450
S'19200'
p451
ssS'name'
p452
S'Arduino Mini w/ ATmega168'
p453
saa(lp454
S'ethernet'
p455
a(dp456
S'build'
p457
(dp458
S'variant'
p459
S'standard'
p460
sS'mcu'
p461
S'atmega328p'
p462
sS'f_cpu'
p463
S'16000000L'
p464
sS'core'
p465
S'arduino'
p466
ssS'bootloader'
p467
(dp468
S'extended_fuses'
p469
S'0x05'
p470
sS'high_fuses'
p471
S'0xde'
p472
sS'low_fuses'
p473
S'0xff'
p474
sS'lock_bits'
p475
S'0x0F'
p476
sS'file'
p477
S'optiboot_atmega328.hex'
p478
sS'path'
p479
S'optiboot'
p480
sS'unlock_bits'
p481
S'0x3F'
p482
ssS'upload'
p483
(dp484
S'protocol'
p485
S'arduino'
p486
sS'maximum_size'
p487
S'32256'
p488
sS'speed'
p489
S'115200'
p490
ssS'name'
p491
S'Arduino Ethernet'
p492
saa(lp493
S'fio'
p494
a(dp495
S'build'
p496
(dp497
S'core'
p498
S'arduino'
p499
sS'mcu'
p500
S'atmega328p'
p501
sS'f_cpu'
p502
S'8000000L'
p503
sS'variant'
p504
S'eightanaloginputs'
p505
ssS'bootloader'
p506
(dp507
S'extended_fuses'
p508
S'0x05'
p509
sS'high_fuses'
p510
S'0xDA'
p511
sS'low_fuses'
p512
S'0xFF'
p513
sS'lock_bits'
p514
S'0x0F'
p515
sS'file'
p516
S'ATmegaBOOT_168_atmega328_pro_8MHz.hex'
p517
sS'path'
p518
S'arduino:atmega'
p519
sS'unlock_bits'
p520
S'0x3F'
p521
ssS'upload'
p522
(dp523
S'protocol'
p524
S'arduino'
p525
sS'maximum_size'
p526
S'30720'
p527
sS'speed'
p528
S'57600'
p529
ssS'name'
p530
S'Arduino Fio'
p531
saa(lp532
S'bt328'
p533
a(dp534
S'build'
p535
(dp536
S'core'
p537
S'arduino'
p538
sS'mcu'
p539
S'atmega328p'
p540
sS'f_cpu'
p541
S'16000000L'
p542
sS'variant'
p543
S'eightanaloginputs'
p544
ssS'bootloader'
p545
(dp546
S'extended_fuses'
p547
S'0x05'
p548
sS'high_fuses'
p549
S'0xd8'
p550
sS'low_fuses'
p551
S'0xff'
p552
sS'lock_bits'
p553
S'0x0F'
p554
sS'file'
p555
S'ATmegaBOOT_168_atmega328_bt.hex'
p556
sS'path'
p557
S'bt'
p558
sS'unlock_bits'
p559
S'0x3F'
p560
ssS'upload'
p561
(dp562
S'protocol'
p563
S'arduino'
p564
sS'maximum_size'
p565
S'28672'
p566
sS'speed'
p567
S'19200'
p568
sS'disable_flushing'
p569
S'true'
p570
ssS'name'
p571
S'Arduino BT w/ ATmega328'
p572
saa(lp573
S'bt'
p574
a(dp575
S'build'
p576
(dp577
S'core'
p578
S'arduino'
p579
sS'mcu'
p580
S'atmega168'
p581
sS'f_cpu'
p582
S'16000000L'
p583
sS'variant'
p584
S'eightanaloginputs'
p585
ssS'bootloader'
p586
(dp587
S'extended_fuses'
p588
S'0x00'
p589
sS'high_fuses'
p590
S'0xdd'
p591
sS'low_fuses'
p592
S'0xff'
p593
sS'lock_bits'
p594
S'0x0F'
p595
sS'file'
p596
S'ATmegaBOOT_168.hex'
p597
sS'path'
p598
S'bt'
p599
sS'unlock_bits'
p600
S'0x3F'
p601
ssS'upload'
p602
(dp603
S'protocol'
p604
S'arduino'
p605
sS'maximum_size'
p606
S'14336'
p607
sS'speed'
p608
S'19200'
p609
sS'disable_flushing'
p610
S'true'
p611
ssS'name'
p612
S'Arduino BT w/ ATmega168'
p613
saa(lp614
S'lilypad328'
p615
a(dp616
S'build'
p617
(dp618
S'core'
p619
S'arduino'
p620
sS'mcu'
p621
S'atmega328p'
p622
sS'f_cpu'
p623
S'8000000L'
p624
sS'variant'
p625
S'standard'
p626
ssS'bootloader'
p627
(dp628
S'extended_fuses'
p629
S'0x05'
p630
sS'high_fuses'
p631
S'0xDA'
p632
sS'low_fuses'
p633
S'0xFF'
p634
sS'lock_bits'
p635
S'0x0F'
p636
sS'file'
p637
S'ATmegaBOOT_168_atmega328_pro_8MHz.hex'
p638
sS'path'
p639
S'atmega'
p640
sS'unlock_bits'
p641
S'0x3F'
p642
ssS'upload'
p643
(dp644
S'protocol'
p645
S'arduino'
p646
sS'maximum_size'
p647
S'30720'
p648
sS'speed'
p649
S'57600'
p650
ssS'name'
p651
S'LilyPad Arduino w/ ATmega328'
p652
saa(lp653
S'lilypad'
p654
a(dp655
S'build'
p656
(dp657
S'core'
p658
S'arduino'
p659
sS'mcu'
p660
S'atmega168'
p661
sS'f_cpu'
p662
S'8000000L'
p663
sS'variant'
p664
S'standard'
p665
ssS'bootloader'
p666
(dp667
S'extended_fuses'
p668
S'0x00'
p669
sS'high_fuses'
p670
S'0xdd'
p671
sS'low_fuses'
p672
S'0xe2'
p673
sS'lock_bits'
p674
S'0x0F'
p675
sS'file'
p676
S'LilyPadBOOT_168.hex'
p677
sS'path'
p678
S'lilypad'
p679
sS'unlock_bits'
p680
S'0x3F'
p681
ssS'upload'
p682
(dp683
S'protocol'
p684
S'arduino'
p685
sS'maximum_size'
p686
S'14336'
p687
sS'speed'
p688
S'19200'
p689
ssS'name'
p690
S'LilyPad Arduino w/ ATmega168'
p691
saa(lp692
S'pro5v328'
p693
a(dp694
S'build'
p695
(dp696
S'core'
p697
S'arduino'
p698
sS'mcu'
p699
S'atmega328p'
p700
sS'f_cpu'
p701
S'16000000L'
p702
sS'variant'
p703
S'standard'
p704
ssS'bootloader'
p705
(dp706
S'extended_fuses'
p707
S'0x05'
p708
sS'high_fuses'
p709
S'0xDA'
p710
sS'low_fuses'
p711
S'0xFF'
p712
sS'lock_bits'
p713
S'0x0F'
p714
sS'file'
p715
S'ATmegaBOOT_168_atmega328.hex'
p716
sS'path'
p717
S'atmega'
p718
sS'unlock_bits'
p719
S'0x3F'
p720
ssS'upload'
p721
(dp722
S'protocol'
p723
S'arduino'
p724
sS'maximum_size'
p725
S'30720'
p726
sS'speed'
p727
S'57600'
p728
ssS'name'
p729
S'Arduino Pro or Pro Mini (5V, 16 MHz) w/ ATmega328'
p730
saa(lp731
S'pro5v'
p732
a(dp733
S'build'
p734
(dp735
S'core'
p736
S'arduino'
p737
sS'mcu'
p738
S'atmega168'
p739
sS'f_cpu'
p740
S'16000000L'
p741
sS'variant'
p742
S'standard'
p743
ssS'bootloader'
p744
(dp745
S'extended_fuses'
p746
S'0x00'
p747
sS'high_fuses'
p748
S'0xdd'
p749
sS'low_fuses'
p750
S'0xff'
p751
sS'lock_bits'
p752
S'0x0F'
p753
sS'file'
p754
S'ATmegaBOOT_168_diecimila.hex'
p755
sS'path'
p756
S'atmega'
p757
sS'unlock_bits'
p758
S'0x3F'
p759
ssS'upload'
p760
(dp761
S'protocol'
p762
S'arduino'
p763
sS'maximum_size'
p764
S'14336'
p765
sS'speed'
p766
S'19200'
p767
ssS'name'
p768
S'Arduino Pro or Pro Mini (5V, 16 MHz) w/ ATmega168'
p769
saa(lp770
S'pro328'
p771
a(dp772
S'build'
p773
(dp774
S'core'
p775
S'arduino'
p776
sS'mcu'
p777
S'atmega328p'
p778
sS'f_cpu'
p779
S'8000000L'
p780
sS'variant'
p781
S'standard'
p782
ssS'bootloader'
p783
(dp784
S'extended_fuses'
p785
S'0x05'
p786
sS'high_fuses'
p787
S'0xDA'
p788
sS'low_fuses'
p789
S'0xFF'
p790
sS'lock_bits'
p791
S'0x0F'
p792
sS'file'
p793
S'ATmegaBOOT_168_atmega328_pro_8MHz.hex'
p794
sS'path'
p795
S'atmega'
p796
sS'unlock_bits'
p797
S'0x3F'
p798
ssS'upload'
p799
(dp800
S'protocol'
p801
S'arduino'
p802
sS'maximum_size'
p803
S'30720'
p804
sS'speed'
p805
S'57600'
p806
ssS'name'
p807
S'Arduino Pro or Pro Mini (3.3V, 8 MHz) w/ ATmega328'
p808
saa(lp809
S'pro'
p810
a(dp811
S'build'
p812
(dp813
S'core'
p814
S'arduino'
p815
sS'mcu'
p816
S'atmega168'
p817
sS'f_cpu'
p818
S'8000000L'
p819
sS'variant'
p820
S'standard'
p821
ssS'bootloader'
p822
(dp823
S'extended_fuses'
p824
S'0x00'
p825
sS'high_fuses'
p826
S'0xdd'
p827
sS'low_fuses'
p828
S'0xc6'
p829
sS'lock_bits'
p830
S'0x0F'
p831
sS'file'
p832
S'ATmegaBOOT_168_pro_8MHz.hex'
p833
sS'path'
p834
S'atmega'
p835
sS'unlock_bits'
p836
S'0x3F'
p837
ssS'upload'
p838
(dp839
S'protocol'
p840
S'arduino'
p841
sS'maximum_size'
p842
S'14336'
p843
sS'speed'
p844
S'19200'
p845
ssS'name'
p846
S'Arduino Pro or Pro Mini (3.3V, 8 MHz) w/ ATmega168'
p847
saa(lp848
S'atmega168'
p849
a(dp850
S'build'
p851
(dp852
S'core'
p853
S'arduino'
p854
sS'mcu'
p855
S'atmega168'
p856
sS'f_cpu'
p857
S'16000000L'
p858
sS'variant'
p859
S'standard'
p860
ssS'bootloader'
p861
(dp862
S'extended_fuses'
p863
S'0x00'
p864
sS'high_fuses'
p865
S'0xdd'
p866
sS'low_fuses'
p867
S'0xff'
p868
sS'lock_bits'
p869
S'0x0F'
p870
sS'file'
p871
S'ATmegaBOOT_168_ng.hex'
p872
sS'path'
p873
S'atmega'
p874
sS'unlock_bits'
p875
S'0x3F'
p876
ssS'upload'
p877
(dp878
S'protocol'
p879
S'arduino'
p880
sS'maximum_size'
p881
S'14336'
p882
sS'speed'
p883
S'19200'
p884
ssS'name'
p885
S'Arduino NG or older w/ ATmega168'
p886
saa(lp887
S'atmega8'
p888
a(dp889
S'build'
p890
(dp891
S'core'
p892
S'arduino'
p893
sS'mcu'
p894
S'atmega8'
p895
sS'f_cpu'
p896
S'16000000L'
p897
sS'variant'
p898
S'standard'
p899
ssS'bootloader'
p900
(dp901
S'high_fuses'
p902
S'0xca'
p903
sS'low_fuses'
p904
S'0xdf'
p905
sS'lock_bits'
p906
S'0x0F'
p907
sS'file'
p908
S'ATmegaBOOT.hex'
p909
sS'path'
p910
S'atmega8'
p911
sS'unlock_bits'
p912
S'0x3F'
p913
ssS'upload'
p914
(dp915
S'protocol'
p916
S'arduino'
p917
sS'maximum_size'
p918
S'7168'
p919
sS'speed'
p920
S'19200'
p921
ssS'name'
p922
S'Arduino NG or older w/ ATmega8'
p923
saatp924
Rp925
(dp926
S'default'
p927
S'uno'
p928
sbtp929
a(S'cc'
p930
S'/usr/bin/avr-gcc'
p931
tp932
a(S'cflags'
p933
g2
(g3
g4
(lp934
g8
aS'-ffunction-sections'
p935
aS'-fdata-sections'
p936
aS'-g'
p937
ag6
aS'-w'
p938
aS'-DF_CPU=16000000L'
p939
aS'-DARDUINO=100'
p940
aS'-I/usr/share/arduino/hardware/arduino/cores/arduino'
p941
aS'-DUSB_VID=0x2341'
p942
aS'-DUSB_PID=0x8036'
p943
aS'-I/usr/share/arduino/hardware/arduino/variants/leonardo'
p944
aS'-I/usr/share/arduino/hardware/arduino/cores/arduino'
p945
atp946
Rp947
tp948
a(S'cxxflags'
p949
g2
(g3
g4
(lp950
S'-fno-exceptions'
p951
atp952
Rp953
tp954
a(S'arduino_variants_dir'
p955
S'/usr/share/arduino/hardware/arduino/variants'
p956
tp957
a(S'stty'
p958
S'/bin/stty'
p959
tp960
a(S'version.txt'
p961
S'/usr/share/arduino/lib/version.txt'
p962
tp963
a(S'arduino_core_dir'
p964
g50
tp965
a(S'boards.txt'
p966
S'/usr/share/arduino/hardware/arduino/boards.txt'
p967
tp968
a(S'avrdude.conf'
p969
S'/usr/share/arduino/hardware/tools/avrdude.conf'
p970
tp971
a(g32
g2
(g3
g4
(lp972
S'.build/leonardo/src/dependencies.d'
p973
aS'.build/leonardo/arduino/dependencies.d'
p974
atp975
Rp976
tp977
a.