(lp0
(S'elfflags'
p1
ccopy_reg
_reconstructor
p2
(cino.utils
SpaceList
p3
c__builtin__
list
p4
(lp5
S'-Os'
p6
aS'-Wl,--gc-sections'
p7
aS'-mmcu=atmega32u4'
p8
atp9
Rp10
tp11
a(S'version.txt'
p12
S'/usr/share/arduino/lib/version.txt'
p13
tp14
a(S'used_libs'
p15
(lp16
S'/usr/share/arduino/libraries/Servo'
p17
aS'/usr/share/arduino/libraries/Firmata'
p18
aS'/usr/share/arduino/libraries/Wire'
p19
aS'/usr/share/arduino/hardware/arduino/cores/arduino'
p20
atp21
a(S'cc'
p22
S'/usr/bin/avr-gcc'
p23
tp24
a(S'stty'
p25
S'/bin/stty'
p26
tp27
a(S'cflags'
p28
g2
(g3
g4
(lp29
g8
aS'-ffunction-sections'
p30
aS'-fdata-sections'
p31
aS'-g'
p32
ag6
aS'-w'
p33
aS'-DF_CPU=16000000L'
p34
aS'-DARDUINO=100'
p35
aS'-I/usr/share/arduino/hardware/arduino/cores/arduino'
p36
aS'-DUSB_VID=0x2341'
p37
aS'-DUSB_PID=0x8036'
p38
aS'-I/usr/share/arduino/hardware/arduino/variants/leonardo'
p39
aS'-I/usr/share/arduino/libraries/Servo'
p40
aS'-I/usr/share/arduino/libraries/Firmata'
p41
aS'-I/usr/share/arduino/libraries/Wire'
p42
aS'-I/usr/share/arduino/libraries/Wire/utility'
p43
aS'-I/usr/share/arduino/hardware/arduino/cores/arduino'
p44
atp45
Rp46
tp47
a(S'avrdude.conf'
p48
S'/usr/share/arduino/hardware/tools/avrdude.conf'
p49
tp50
a(S'build_dir'
p51
S'.build/leonardo'
p52
tp53
a(S'arduino_core_dir'
p54
g20
tp55
a(S'boards.txt'
p56
S'/usr/share/arduino/hardware/arduino/boards.txt'
p57
tp58
a(S'cxxflags'
p59
g2
(g3
g4
(lp60
S'-fno-exceptions'
p61
atp62
Rp63
tp64
a(S'arduino_variants_dir'
p65
S'/usr/share/arduino/hardware/arduino/variants'
p66
tp67
a(S'avrdude'
p68
S'/usr/share/arduino/hardware/tools/avrdude'
p69
tp70
a(S'ar'
p71
S'/usr/bin/avr-ar'
p72
tp73
a(S'names'
p74
(dp75
S'cpp'
p76
S'%s.cpp'
p77
sS'obj'
p78
S'%s.o'
p79
sS'lib'
p80
S'lib%s.a'
p81
sS'deps'
p82
S'%s.d'
p83
stp84
a(g82
g2
(g3
g4
(lp85
S'.build/leonardo/src/dependencies.d'
p86
aS'.build/leonardo/arduino/dependencies.d'
p87
aS'.build/leonardo/Servo/dependencies.d'
p88
aS'.build/leonardo/Firmata/dependencies.d'
p89
aS'.build/leonardo/Wire/dependencies.d'
p90
atp91
Rp92
tp93
a(S'arduino_libraries_dir'
p94
S'/usr/share/arduino/libraries'
p95
tp96
a(S'arduino_lib_version'
p97
g2
(cino.environment
Version
p98
c__builtin__
tuple
p99
(I1
I0
tp100
tp101
Rp102
tp103
a(S'objcopy'
p104
S'/usr/bin/avr-objcopy'
p105
tp106
a(S'board_models'
p107
cino.environment
BoardModels
p108
((lp109
(lp110
S'uno'
p111
a(dp112
S'bootloader'
p113
(dp114
S'extended_fuses'
p115
S'0x05'
p116
sS'high_fuses'
p117
S'0xde'
p118
sS'low_fuses'
p119
S'0xff'
p120
sS'lock_bits'
p121
S'0x0F'
p122
sS'file'
p123
S'optiboot_atmega328.hex'
p124
sS'path'
p125
S'optiboot'
p126
sS'unlock_bits'
p127
S'0x3F'
p128
ssS'upload'
p129
(dp130
S'protocol'
p131
S'arduino'
p132
sS'maximum_size'
p133
S'32256'
p134
sS'speed'
p135
S'115200'
p136
ssS'build'
p137
(dp138
S'core'
p139
S'arduino'
p140
sS'mcu'
p141
S'atmega328p'
p142
sS'f_cpu'
p143
S'16000000L'
p144
sS'variant'
p145
S'standard'
p146
ssS'name'
p147
S'Arduino Uno'
p148
saa(lp149
S'atmega328'
p150
a(dp151
S'bootloader'
p152
(dp153
S'extended_fuses'
p154
S'0x05'
p155
sS'high_fuses'
p156
S'0xDA'
p157
sS'low_fuses'
p158
S'0xFF'
p159
sS'lock_bits'
p160
S'0x0F'
p161
sS'file'
p162
S'ATmegaBOOT_168_atmega328.hex'
p163
sS'path'
p164
S'atmega'
p165
sS'unlock_bits'
p166
S'0x3F'
p167
ssS'upload'
p168
(dp169
S'protocol'
p170
S'arduino'
p171
sS'maximum_size'
p172
S'30720'
p173
sS'speed'
p174
S'57600'
p175
ssS'build'
p176
(dp177
S'core'
p178
S'arduino'
p179
sS'mcu'
p180
S'atmega328p'
p181
sS'f_cpu'
p182
S'16000000L'
p183
sS'variant'
p184
S'standard'
p185
ssS'name'
p186
S'Arduino Duemilanove w/ ATmega328'
p187
saa(lp188
S'diecimila'
p189
a(dp190
S'bootloader'
p191
(dp192
S'extended_fuses'
p193
S'0x00'
p194
sS'high_fuses'
p195
S'0xdd'
p196
sS'low_fuses'
p197
S'0xff'
p198
sS'lock_bits'
p199
S'0x0F'
p200
sS'file'
p201
S'ATmegaBOOT_168_diecimila.hex'
p202
sS'path'
p203
S'atmega'
p204
sS'unlock_bits'
p205
S'0x3F'
p206
ssS'upload'
p207
(dp208
S'protocol'
p209
S'arduino'
p210
sS'maximum_size'
p211
S'14336'
p212
sS'speed'
p213
S'19200'
p214
ssS'build'
p215
(dp216
S'core'
p217
S'arduino'
p218
sS'mcu'
p219
S'atmega168'
p220
sS'f_cpu'
p221
S'16000000L'
p222
sS'variant'
p223
S'standard'
p224
ssS'name'
p225
S'Arduino Diecimila or Duemilanove w/ ATmega168'
p226
saa(lp227
S'nano328'
p228
a(dp229
S'bootloader'
p230
(dp231
S'extended_fuses'
p232
S'0x05'
p233
sS'high_fuses'
p234
S'0xDA'
p235
sS'low_fuses'
p236
S'0xFF'
p237
sS'lock_bits'
p238
S'0x0F'
p239
sS'file'
p240
S'ATmegaBOOT_168_atmega328.hex'
p241
sS'path'
p242
S'atmega'
p243
sS'unlock_bits'
p244
S'0x3F'
p245
ssS'upload'
p246
(dp247
S'protocol'
p248
S'arduino'
p249
sS'maximum_size'
p250
S'30720'
p251
sS'speed'
p252
S'57600'
p253
ssS'build'
p254
(dp255
S'core'
p256
S'arduino'
p257
sS'mcu'
p258
S'atmega328p'
p259
sS'f_cpu'
p260
S'16000000L'
p261
sS'variant'
p262
S'eightanaloginputs'
p263
ssS'name'
p264
S'Arduino Nano w/ ATmega328'
p265
saa(lp266
S'nano'
p267
a(dp268
S'bootloader'
p269
(dp270
S'extended_fuses'
p271
S'0x00'
p272
sS'high_fuses'
p273
S'0xdd'
p274
sS'low_fuses'
p275
S'0xff'
p276
sS'lock_bits'
p277
S'0x0F'
p278
sS'file'
p279
S'ATmegaBOOT_168_diecimila.hex'
p280
sS'path'
p281
S'atmega'
p282
sS'unlock_bits'
p283
S'0x3F'
p284
ssS'upload'
p285
(dp286
S'protocol'
p287
S'arduino'
p288
sS'maximum_size'
p289
S'14336'
p290
sS'speed'
p291
S'19200'
p292
ssS'build'
p293
(dp294
S'core'
p295
S'arduino'
p296
sS'mcu'
p297
S'atmega168'
p298
sS'f_cpu'
p299
S'16000000L'
p300
sS'variant'
p301
S'eightanaloginputs'
p302
ssS'name'
p303
S'Arduino Nano w/ ATmega168'
p304
saa(lp305
S'mega2560'
p306
a(dp307
S'bootloader'
p308
(dp309
S'extended_fuses'
p310
S'0xFD'
p311
sS'high_fuses'
p312
S'0xD8'
p313
sS'low_fuses'
p314
S'0xFF'
p315
sS'lock_bits'
p316
S'0x0F'
p317
sS'file'
p318
S'stk500boot_v2_mega2560.hex'
p319
sS'path'
p320
S'stk500v2'
p321
sS'unlock_bits'
p322
S'0x3F'
p323
ssS'upload'
p324
(dp325
S'protocol'
p326
S'stk500v2'
p327
sS'maximum_size'
p328
S'258048'
p329
sS'speed'
p330
S'115200'
p331
ssS'build'
p332
(dp333
S'core'
p334
S'arduino'
p335
sS'mcu'
p336
S'atmega2560'
p337
sS'f_cpu'
p338
S'16000000L'
p339
sS'variant'
p340
S'mega'
p341
ssS'name'
p342
S'Arduino Mega 2560 or Mega ADK'
p343
saa(lp344
S'mega'
p345
a(dp346
S'bootloader'
p347
(dp348
S'extended_fuses'
p349
S'0xF5'
p350
sS'high_fuses'
p351
S'0xDA'
p352
sS'low_fuses'
p353
S'0xFF'
p354
sS'lock_bits'
p355
S'0x0F'
p356
sS'file'
p357
S'ATmegaBOOT_168_atmega1280.hex'
p358
sS'path'
p359
S'atmega'
p360
sS'unlock_bits'
p361
S'0x3F'
p362
ssS'upload'
p363
(dp364
S'protocol'
p365
S'arduino'
p366
sS'maximum_size'
p367
S'126976'
p368
sS'speed'
p369
S'57600'
p370
ssS'build'
p371
(dp372
S'core'
p373
S'arduino'
p374
sS'mcu'
p375
S'atmega1280'
p376
sS'f_cpu'
p377
S'16000000L'
p378
sS'variant'
p379
S'mega'
p380
ssS'name'
p381
S'Arduino Mega (ATmega1280)'
p382
saa(lp383
S'leonardo'
p384
a(dp385
S'bootloader'
p386
(dp387
S'extended_fuses'
p388
S'0xcb'
p389
sS'high_fuses'
p390
S'0xd8'
p391
sS'low_fuses'
p392
S'0xff'
p393
sS'lock_bits'
p394
S'0x2F'
p395
sS'file'
p396
S'Caterina-Leonardo.hex'
p397
sS'path'
p398
S'caterina'
p399
sS'unlock_bits'
p400
S'0x3F'
p401
ssS'upload'
p402
(dp403
S'protocol'
p404
S'avr109'
p405
sS'maximum_size'
p406
S'28672'
p407
sS'speed'
p408
S'57600'
p409
sS'disable_flushing'
p410
S'true'
p411
ssS'build'
p412
(dp413
S'core'
p414
S'arduino'
p415
sS'f_cpu'
p416
S'16000000L'
p417
sS'vid'
p418
S'0x2341'
p419
sS'pid'
p420
S'0x8036'
p421
sS'variant'
p422
S'leonardo'
p423
sS'mcu'
p424
S'atmega32u4'
p425
ssS'name'
p426
S'Arduino Leonardo'
p427
saa(lp428
S'mini328'
p429
a(dp430
S'bootloader'
p431
(dp432
S'extended_fuses'
p433
S'0x05'
p434
sS'high_fuses'
p435
S'0xd8'
p436
sS'low_fuses'
p437
S'0xff'
p438
sS'lock_bits'
p439
S'0x0F'
p440
sS'file'
p441
S'optiboot_atmega328-Mini.hex'
p442
sS'path'
p443
S'optiboot'
p444
sS'unlock_bits'
p445
S'0x3F'
p446
ssS'upload'
p447
(dp448
S'protocol'
p449
S'arduino'
p450
sS'maximum_size'
p451
S'28672'
p452
sS'speed'
p453
S'115200'
p454
ssS'build'
p455
(dp456
S'core'
p457
S'arduino'
p458
sS'mcu'
p459
S'atmega328p'
p460
sS'f_cpu'
p461
S'16000000L'
p462
sS'variant'
p463
S'eightanaloginputs'
p464
ssS'name'
p465
S'Arduino Mini w/ ATmega328'
p466
saa(lp467
S'mini'
p468
a(dp469
S'bootloader'
p470
(dp471
S'extended_fuses'
p472
S'0x00'
p473
sS'high_fuses'
p474
S'0xdd'
p475
sS'low_fuses'
p476
S'0xff'
p477
sS'lock_bits'
p478
S'0x0F'
p479
sS'file'
p480
S'ATmegaBOOT_168_ng.hex'
p481
sS'path'
p482
S'atmega'
p483
sS'unlock_bits'
p484
S'0x3F'
p485
ssS'upload'
p486
(dp487
S'protocol'
p488
S'arduino'
p489
sS'maximum_size'
p490
S'14336'
p491
sS'speed'
p492
S'19200'
p493
ssS'build'
p494
(dp495
S'core'
p496
S'arduino'
p497
sS'mcu'
p498
S'atmega168'
p499
sS'f_cpu'
p500
S'16000000L'
p501
sS'variant'
p502
S'eightanaloginputs'
p503
ssS'name'
p504
S'Arduino Mini w/ ATmega168'
p505
saa(lp506
S'ethernet'
p507
a(dp508
S'bootloader'
p509
(dp510
S'extended_fuses'
p511
S'0x05'
p512
sS'high_fuses'
p513
S'0xde'
p514
sS'low_fuses'
p515
S'0xff'
p516
sS'lock_bits'
p517
S'0x0F'
p518
sS'file'
p519
S'optiboot_atmega328.hex'
p520
sS'path'
p521
S'optiboot'
p522
sS'unlock_bits'
p523
S'0x3F'
p524
ssS'upload'
p525
(dp526
S'protocol'
p527
S'arduino'
p528
sS'maximum_size'
p529
S'32256'
p530
sS'speed'
p531
S'115200'
p532
ssS'build'
p533
(dp534
S'variant'
p535
S'standard'
p536
sS'mcu'
p537
S'atmega328p'
p538
sS'f_cpu'
p539
S'16000000L'
p540
sS'core'
p541
S'arduino'
p542
ssS'name'
p543
S'Arduino Ethernet'
p544
saa(lp545
S'fio'
p546
a(dp547
S'bootloader'
p548
(dp549
S'extended_fuses'
p550
S'0x05'
p551
sS'high_fuses'
p552
S'0xDA'
p553
sS'low_fuses'
p554
S'0xFF'
p555
sS'lock_bits'
p556
S'0x0F'
p557
sS'file'
p558
S'ATmegaBOOT_168_atmega328_pro_8MHz.hex'
p559
sS'path'
p560
S'arduino:atmega'
p561
sS'unlock_bits'
p562
S'0x3F'
p563
ssS'upload'
p564
(dp565
S'protocol'
p566
S'arduino'
p567
sS'maximum_size'
p568
S'30720'
p569
sS'speed'
p570
S'57600'
p571
ssS'build'
p572
(dp573
S'core'
p574
S'arduino'
p575
sS'mcu'
p576
S'atmega328p'
p577
sS'f_cpu'
p578
S'8000000L'
p579
sS'variant'
p580
S'eightanaloginputs'
p581
ssS'name'
p582
S'Arduino Fio'
p583
saa(lp584
S'bt328'
p585
a(dp586
S'bootloader'
p587
(dp588
S'extended_fuses'
p589
S'0x05'
p590
sS'high_fuses'
p591
S'0xd8'
p592
sS'low_fuses'
p593
S'0xff'
p594
sS'lock_bits'
p595
S'0x0F'
p596
sS'file'
p597
S'ATmegaBOOT_168_atmega328_bt.hex'
p598
sS'path'
p599
S'bt'
p600
sS'unlock_bits'
p601
S'0x3F'
p602
ssS'upload'
p603
(dp604
S'protocol'
p605
S'arduino'
p606
sS'maximum_size'
p607
S'28672'
p608
sS'speed'
p609
S'19200'
p610
sS'disable_flushing'
p611
S'true'
p612
ssS'build'
p613
(dp614
S'core'
p615
S'arduino'
p616
sS'mcu'
p617
S'atmega328p'
p618
sS'f_cpu'
p619
S'16000000L'
p620
sS'variant'
p621
S'eightanaloginputs'
p622
ssS'name'
p623
S'Arduino BT w/ ATmega328'
p624
saa(lp625
S'bt'
p626
a(dp627
S'bootloader'
p628
(dp629
S'extended_fuses'
p630
S'0x00'
p631
sS'high_fuses'
p632
S'0xdd'
p633
sS'low_fuses'
p634
S'0xff'
p635
sS'lock_bits'
p636
S'0x0F'
p637
sS'file'
p638
S'ATmegaBOOT_168.hex'
p639
sS'path'
p640
S'bt'
p641
sS'unlock_bits'
p642
S'0x3F'
p643
ssS'upload'
p644
(dp645
S'protocol'
p646
S'arduino'
p647
sS'maximum_size'
p648
S'14336'
p649
sS'speed'
p650
S'19200'
p651
sS'disable_flushing'
p652
S'true'
p653
ssS'build'
p654
(dp655
S'core'
p656
S'arduino'
p657
sS'mcu'
p658
S'atmega168'
p659
sS'f_cpu'
p660
S'16000000L'
p661
sS'variant'
p662
S'eightanaloginputs'
p663
ssS'name'
p664
S'Arduino BT w/ ATmega168'
p665
saa(lp666
S'lilypad328'
p667
a(dp668
S'bootloader'
p669
(dp670
S'extended_fuses'
p671
S'0x05'
p672
sS'high_fuses'
p673
S'0xDA'
p674
sS'low_fuses'
p675
S'0xFF'
p676
sS'lock_bits'
p677
S'0x0F'
p678
sS'file'
p679
S'ATmegaBOOT_168_atmega328_pro_8MHz.hex'
p680
sS'path'
p681
S'atmega'
p682
sS'unlock_bits'
p683
S'0x3F'
p684
ssS'upload'
p685
(dp686
S'protocol'
p687
S'arduino'
p688
sS'maximum_size'
p689
S'30720'
p690
sS'speed'
p691
S'57600'
p692
ssS'build'
p693
(dp694
S'core'
p695
S'arduino'
p696
sS'mcu'
p697
S'atmega328p'
p698
sS'f_cpu'
p699
S'8000000L'
p700
sS'variant'
p701
S'standard'
p702
ssS'name'
p703
S'LilyPad Arduino w/ ATmega328'
p704
saa(lp705
S'lilypad'
p706
a(dp707
S'bootloader'
p708
(dp709
S'extended_fuses'
p710
S'0x00'
p711
sS'high_fuses'
p712
S'0xdd'
p713
sS'low_fuses'
p714
S'0xe2'
p715
sS'lock_bits'
p716
S'0x0F'
p717
sS'file'
p718
S'LilyPadBOOT_168.hex'
p719
sS'path'
p720
S'lilypad'
p721
sS'unlock_bits'
p722
S'0x3F'
p723
ssS'upload'
p724
(dp725
S'protocol'
p726
S'arduino'
p727
sS'maximum_size'
p728
S'14336'
p729
sS'speed'
p730
S'19200'
p731
ssS'build'
p732
(dp733
S'core'
p734
S'arduino'
p735
sS'mcu'
p736
S'atmega168'
p737
sS'f_cpu'
p738
S'8000000L'
p739
sS'variant'
p740
S'standard'
p741
ssS'name'
p742
S'LilyPad Arduino w/ ATmega168'
p743
saa(lp744
S'pro5v328'
p745
a(dp746
S'bootloader'
p747
(dp748
S'extended_fuses'
p749
S'0x05'
p750
sS'high_fuses'
p751
S'0xDA'
p752
sS'low_fuses'
p753
S'0xFF'
p754
sS'lock_bits'
p755
S'0x0F'
p756
sS'file'
p757
S'ATmegaBOOT_168_atmega328.hex'
p758
sS'path'
p759
S'atmega'
p760
sS'unlock_bits'
p761
S'0x3F'
p762
ssS'upload'
p763
(dp764
S'protocol'
p765
S'arduino'
p766
sS'maximum_size'
p767
S'30720'
p768
sS'speed'
p769
S'57600'
p770
ssS'build'
p771
(dp772
S'core'
p773
S'arduino'
p774
sS'mcu'
p775
S'atmega328p'
p776
sS'f_cpu'
p777
S'16000000L'
p778
sS'variant'
p779
S'standard'
p780
ssS'name'
p781
S'Arduino Pro or Pro Mini (5V, 16 MHz) w/ ATmega328'
p782
saa(lp783
S'pro5v'
p784
a(dp785
S'bootloader'
p786
(dp787
S'extended_fuses'
p788
S'0x00'
p789
sS'high_fuses'
p790
S'0xdd'
p791
sS'low_fuses'
p792
S'0xff'
p793
sS'lock_bits'
p794
S'0x0F'
p795
sS'file'
p796
S'ATmegaBOOT_168_diecimila.hex'
p797
sS'path'
p798
S'atmega'
p799
sS'unlock_bits'
p800
S'0x3F'
p801
ssS'upload'
p802
(dp803
S'protocol'
p804
S'arduino'
p805
sS'maximum_size'
p806
S'14336'
p807
sS'speed'
p808
S'19200'
p809
ssS'build'
p810
(dp811
S'core'
p812
S'arduino'
p813
sS'mcu'
p814
S'atmega168'
p815
sS'f_cpu'
p816
S'16000000L'
p817
sS'variant'
p818
S'standard'
p819
ssS'name'
p820
S'Arduino Pro or Pro Mini (5V, 16 MHz) w/ ATmega168'
p821
saa(lp822
S'pro328'
p823
a(dp824
S'bootloader'
p825
(dp826
S'extended_fuses'
p827
S'0x05'
p828
sS'high_fuses'
p829
S'0xDA'
p830
sS'low_fuses'
p831
S'0xFF'
p832
sS'lock_bits'
p833
S'0x0F'
p834
sS'file'
p835
S'ATmegaBOOT_168_atmega328_pro_8MHz.hex'
p836
sS'path'
p837
S'atmega'
p838
sS'unlock_bits'
p839
S'0x3F'
p840
ssS'upload'
p841
(dp842
S'protocol'
p843
S'arduino'
p844
sS'maximum_size'
p845
S'30720'
p846
sS'speed'
p847
S'57600'
p848
ssS'build'
p849
(dp850
S'core'
p851
S'arduino'
p852
sS'mcu'
p853
S'atmega328p'
p854
sS'f_cpu'
p855
S'8000000L'
p856
sS'variant'
p857
S'standard'
p858
ssS'name'
p859
S'Arduino Pro or Pro Mini (3.3V, 8 MHz) w/ ATmega328'
p860
saa(lp861
S'pro'
p862
a(dp863
S'bootloader'
p864
(dp865
S'extended_fuses'
p866
S'0x00'
p867
sS'high_fuses'
p868
S'0xdd'
p869
sS'low_fuses'
p870
S'0xc6'
p871
sS'lock_bits'
p872
S'0x0F'
p873
sS'file'
p874
S'ATmegaBOOT_168_pro_8MHz.hex'
p875
sS'path'
p876
S'atmega'
p877
sS'unlock_bits'
p878
S'0x3F'
p879
ssS'upload'
p880
(dp881
S'protocol'
p882
S'arduino'
p883
sS'maximum_size'
p884
S'14336'
p885
sS'speed'
p886
S'19200'
p887
ssS'build'
p888
(dp889
S'core'
p890
S'arduino'
p891
sS'mcu'
p892
S'atmega168'
p893
sS'f_cpu'
p894
S'8000000L'
p895
sS'variant'
p896
S'standard'
p897
ssS'name'
p898
S'Arduino Pro or Pro Mini (3.3V, 8 MHz) w/ ATmega168'
p899
saa(lp900
S'atmega168'
p901
a(dp902
S'bootloader'
p903
(dp904
S'extended_fuses'
p905
S'0x00'
p906
sS'high_fuses'
p907
S'0xdd'
p908
sS'low_fuses'
p909
S'0xff'
p910
sS'lock_bits'
p911
S'0x0F'
p912
sS'file'
p913
S'ATmegaBOOT_168_ng.hex'
p914
sS'path'
p915
S'atmega'
p916
sS'unlock_bits'
p917
S'0x3F'
p918
ssS'upload'
p919
(dp920
S'protocol'
p921
S'arduino'
p922
sS'maximum_size'
p923
S'14336'
p924
sS'speed'
p925
S'19200'
p926
ssS'build'
p927
(dp928
S'core'
p929
S'arduino'
p930
sS'mcu'
p931
S'atmega168'
p932
sS'f_cpu'
p933
S'16000000L'
p934
sS'variant'
p935
S'standard'
p936
ssS'name'
p937
S'Arduino NG or older w/ ATmega168'
p938
saa(lp939
S'atmega8'
p940
a(dp941
S'bootloader'
p942
(dp943
S'high_fuses'
p944
S'0xca'
p945
sS'low_fuses'
p946
S'0xdf'
p947
sS'lock_bits'
p948
S'0x0F'
p949
sS'file'
p950
S'ATmegaBOOT.hex'
p951
sS'path'
p952
S'atmega8'
p953
sS'unlock_bits'
p954
S'0x3F'
p955
ssS'upload'
p956
(dp957
S'protocol'
p958
S'arduino'
p959
sS'maximum_size'
p960
S'7168'
p961
sS'speed'
p962
S'19200'
p963
ssS'build'
p964
(dp965
S'core'
p966
S'arduino'
p967
sS'mcu'
p968
S'atmega8'
p969
sS'f_cpu'
p970
S'16000000L'
p971
sS'variant'
p972
S'standard'
p973
ssS'name'
p974
S'Arduino NG or older w/ ATmega8'
p975
saatp976
Rp977
(dp978
S'default'
p979
S'uno'
p980
sbtp981
a(S'cxx'
p982
S'/usr/bin/avr-g++'
p983
tp984
a.