(lp0
(S'elfflags'
p1
ccopy_reg
_reconstructor
p2
(cino.utils
SpaceList
p3
c__builtin__
list
p4
(lp5
S'-Os'
p6
aS'-Wl,--gc-sections'
p7
aS'-mmcu=atmega32u4'
p8
atp9
Rp10
tp11
a(S'cxx'
p12
S'/usr/bin/avr-g++'
p13
tp14
a(S'build_dir'
p15
S'.build/leonardo'
p16
tp17
a(S'avrdude'
p18
S'/usr/share/arduino/hardware/tools/avrdude'
p19
tp20
a(S'ar'
p21
S'/usr/bin/avr-ar'
p22
tp23
a(S'names'
p24
(dp25
S'cpp'
p26
S'%s.cpp'
p27
sS'obj'
p28
S'%s.o'
p29
sS'deps'
p30
S'%s.d'
p31
sS'lib'
p32
S'lib%s.a'
p33
stp34
a(S'serial'
p35
S'/usr/bin/picocom'
p36
tp37
a(S'objcopy'
p38
S'/usr/bin/avr-objcopy'
p39
tp40
a(S'arduino_lib_version'
p41
g2
(cino.environment
Version
p42
c__builtin__
tuple
p43
(I1
I0
tp44
tp45
Rp46
tp47
a(S'used_libs'
p48
(lp49
S'lib/NewPing'
p50
aS'/usr/share/arduino/hardware/arduino/cores/arduino'
p51
atp52
a(S'arduino_libraries_dir'
p53
S'/usr/share/arduino/libraries'
p54
tp55
a(S'board_models'
p56
cino.environment
BoardModels
p57
((lp58
(lp59
S'uno'
p60
a(dp61
S'bootloader'
p62
(dp63
S'extended_fuses'
p64
S'0x05'
p65
sS'high_fuses'
p66
S'0xde'
p67
sS'low_fuses'
p68
S'0xff'
p69
sS'lock_bits'
p70
S'0x0F'
p71
sS'file'
p72
S'optiboot_atmega328.hex'
p73
sS'path'
p74
S'optiboot'
p75
sS'unlock_bits'
p76
S'0x3F'
p77
ssS'build'
p78
(dp79
S'core'
p80
S'arduino'
p81
sS'mcu'
p82
S'atmega328p'
p83
sS'f_cpu'
p84
S'16000000L'
p85
sS'variant'
p86
S'standard'
p87
ssS'name'
p88
S'Arduino Uno'
p89
sS'upload'
p90
(dp91
S'speed'
p92
S'115200'
p93
sS'maximum_size'
p94
S'32256'
p95
sS'protocol'
p96
S'arduino'
p97
ssaa(lp98
S'atmega328'
p99
a(dp100
S'bootloader'
p101
(dp102
S'extended_fuses'
p103
S'0x05'
p104
sS'high_fuses'
p105
S'0xDA'
p106
sS'low_fuses'
p107
S'0xFF'
p108
sS'lock_bits'
p109
S'0x0F'
p110
sS'file'
p111
S'ATmegaBOOT_168_atmega328.hex'
p112
sS'path'
p113
S'atmega'
p114
sS'unlock_bits'
p115
S'0x3F'
p116
ssS'build'
p117
(dp118
S'core'
p119
S'arduino'
p120
sS'mcu'
p121
S'atmega328p'
p122
sS'f_cpu'
p123
S'16000000L'
p124
sS'variant'
p125
S'standard'
p126
ssS'name'
p127
S'Arduino Duemilanove w/ ATmega328'
p128
sS'upload'
p129
(dp130
S'speed'
p131
S'57600'
p132
sS'maximum_size'
p133
S'30720'
p134
sS'protocol'
p135
S'arduino'
p136
ssaa(lp137
S'diecimila'
p138
a(dp139
S'bootloader'
p140
(dp141
S'extended_fuses'
p142
S'0x00'
p143
sS'high_fuses'
p144
S'0xdd'
p145
sS'low_fuses'
p146
S'0xff'
p147
sS'lock_bits'
p148
S'0x0F'
p149
sS'file'
p150
S'ATmegaBOOT_168_diecimila.hex'
p151
sS'path'
p152
S'atmega'
p153
sS'unlock_bits'
p154
S'0x3F'
p155
ssS'build'
p156
(dp157
S'core'
p158
S'arduino'
p159
sS'mcu'
p160
S'atmega168'
p161
sS'f_cpu'
p162
S'16000000L'
p163
sS'variant'
p164
S'standard'
p165
ssS'name'
p166
S'Arduino Diecimila or Duemilanove w/ ATmega168'
p167
sS'upload'
p168
(dp169
S'speed'
p170
S'19200'
p171
sS'maximum_size'
p172
S'14336'
p173
sS'protocol'
p174
S'arduino'
p175
ssaa(lp176
S'nano328'
p177
a(dp178
S'bootloader'
p179
(dp180
S'extended_fuses'
p181
S'0x05'
p182
sS'high_fuses'
p183
S'0xDA'
p184
sS'low_fuses'
p185
S'0xFF'
p186
sS'lock_bits'
p187
S'0x0F'
p188
sS'file'
p189
S'ATmegaBOOT_168_atmega328.hex'
p190
sS'path'
p191
S'atmega'
p192
sS'unlock_bits'
p193
S'0x3F'
p194
ssS'build'
p195
(dp196
S'core'
p197
S'arduino'
p198
sS'mcu'
p199
S'atmega328p'
p200
sS'f_cpu'
p201
S'16000000L'
p202
sS'variant'
p203
S'eightanaloginputs'
p204
ssS'name'
p205
S'Arduino Nano w/ ATmega328'
p206
sS'upload'
p207
(dp208
S'speed'
p209
S'57600'
p210
sS'maximum_size'
p211
S'30720'
p212
sS'protocol'
p213
S'arduino'
p214
ssaa(lp215
S'nano'
p216
a(dp217
S'bootloader'
p218
(dp219
S'extended_fuses'
p220
S'0x00'
p221
sS'high_fuses'
p222
S'0xdd'
p223
sS'low_fuses'
p224
S'0xff'
p225
sS'lock_bits'
p226
S'0x0F'
p227
sS'file'
p228
S'ATmegaBOOT_168_diecimila.hex'
p229
sS'path'
p230
S'atmega'
p231
sS'unlock_bits'
p232
S'0x3F'
p233
ssS'build'
p234
(dp235
S'core'
p236
S'arduino'
p237
sS'mcu'
p238
S'atmega168'
p239
sS'f_cpu'
p240
S'16000000L'
p241
sS'variant'
p242
S'eightanaloginputs'
p243
ssS'name'
p244
S'Arduino Nano w/ ATmega168'
p245
sS'upload'
p246
(dp247
S'speed'
p248
S'19200'
p249
sS'maximum_size'
p250
S'14336'
p251
sS'protocol'
p252
S'arduino'
p253
ssaa(lp254
S'mega2560'
p255
a(dp256
S'bootloader'
p257
(dp258
S'extended_fuses'
p259
S'0xFD'
p260
sS'high_fuses'
p261
S'0xD8'
p262
sS'low_fuses'
p263
S'0xFF'
p264
sS'lock_bits'
p265
S'0x0F'
p266
sS'file'
p267
S'stk500boot_v2_mega2560.hex'
p268
sS'path'
p269
S'stk500v2'
p270
sS'unlock_bits'
p271
S'0x3F'
p272
ssS'build'
p273
(dp274
S'core'
p275
S'arduino'
p276
sS'mcu'
p277
S'atmega2560'
p278
sS'f_cpu'
p279
S'16000000L'
p280
sS'variant'
p281
S'mega'
p282
ssS'name'
p283
S'Arduino Mega 2560 or Mega ADK'
p284
sS'upload'
p285
(dp286
S'speed'
p287
S'115200'
p288
sS'maximum_size'
p289
S'258048'
p290
sS'protocol'
p291
S'stk500v2'
p292
ssaa(lp293
S'mega'
p294
a(dp295
S'bootloader'
p296
(dp297
S'extended_fuses'
p298
S'0xF5'
p299
sS'high_fuses'
p300
S'0xDA'
p301
sS'low_fuses'
p302
S'0xFF'
p303
sS'lock_bits'
p304
S'0x0F'
p305
sS'file'
p306
S'ATmegaBOOT_168_atmega1280.hex'
p307
sS'path'
p308
S'atmega'
p309
sS'unlock_bits'
p310
S'0x3F'
p311
ssS'build'
p312
(dp313
S'core'
p314
S'arduino'
p315
sS'mcu'
p316
S'atmega1280'
p317
sS'f_cpu'
p318
S'16000000L'
p319
sS'variant'
p320
S'mega'
p321
ssS'name'
p322
S'Arduino Mega (ATmega1280)'
p323
sS'upload'
p324
(dp325
S'speed'
p326
S'57600'
p327
sS'maximum_size'
p328
S'126976'
p329
sS'protocol'
p330
S'arduino'
p331
ssaa(lp332
S'leonardo'
p333
a(dp334
S'bootloader'
p335
(dp336
S'extended_fuses'
p337
S'0xcb'
p338
sS'high_fuses'
p339
S'0xd8'
p340
sS'low_fuses'
p341
S'0xff'
p342
sS'lock_bits'
p343
S'0x2F'
p344
sS'file'
p345
S'Caterina-Leonardo.hex'
p346
sS'path'
p347
S'caterina'
p348
sS'unlock_bits'
p349
S'0x3F'
p350
ssS'build'
p351
(dp352
S'core'
p353
S'arduino'
p354
sS'f_cpu'
p355
S'16000000L'
p356
sS'vid'
p357
S'0x2341'
p358
sS'pid'
p359
S'0x8036'
p360
sS'variant'
p361
S'leonardo'
p362
sS'mcu'
p363
S'atmega32u4'
p364
ssS'name'
p365
S'Arduino Leonardo'
p366
sS'upload'
p367
(dp368
S'speed'
p369
S'57600'
p370
sS'maximum_size'
p371
S'28672'
p372
sS'protocol'
p373
S'avr109'
p374
sS'disable_flushing'
p375
S'true'
p376
ssaa(lp377
S'mini328'
p378
a(dp379
S'bootloader'
p380
(dp381
S'extended_fuses'
p382
S'0x05'
p383
sS'high_fuses'
p384
S'0xd8'
p385
sS'low_fuses'
p386
S'0xff'
p387
sS'lock_bits'
p388
S'0x0F'
p389
sS'file'
p390
S'optiboot_atmega328-Mini.hex'
p391
sS'path'
p392
S'optiboot'
p393
sS'unlock_bits'
p394
S'0x3F'
p395
ssS'build'
p396
(dp397
S'core'
p398
S'arduino'
p399
sS'mcu'
p400
S'atmega328p'
p401
sS'f_cpu'
p402
S'16000000L'
p403
sS'variant'
p404
S'eightanaloginputs'
p405
ssS'name'
p406
S'Arduino Mini w/ ATmega328'
p407
sS'upload'
p408
(dp409
S'speed'
p410
S'115200'
p411
sS'maximum_size'
p412
S'28672'
p413
sS'protocol'
p414
S'arduino'
p415
ssaa(lp416
S'mini'
p417
a(dp418
S'bootloader'
p419
(dp420
S'extended_fuses'
p421
S'0x00'
p422
sS'high_fuses'
p423
S'0xdd'
p424
sS'low_fuses'
p425
S'0xff'
p426
sS'lock_bits'
p427
S'0x0F'
p428
sS'file'
p429
S'ATmegaBOOT_168_ng.hex'
p430
sS'path'
p431
S'atmega'
p432
sS'unlock_bits'
p433
S'0x3F'
p434
ssS'build'
p435
(dp436
S'core'
p437
S'arduino'
p438
sS'mcu'
p439
S'atmega168'
p440
sS'f_cpu'
p441
S'16000000L'
p442
sS'variant'
p443
S'eightanaloginputs'
p444
ssS'name'
p445
S'Arduino Mini w/ ATmega168'
p446
sS'upload'
p447
(dp448
S'speed'
p449
S'19200'
p450
sS'maximum_size'
p451
S'14336'
p452
sS'protocol'
p453
S'arduino'
p454
ssaa(lp455
S'ethernet'
p456
a(dp457
S'bootloader'
p458
(dp459
S'extended_fuses'
p460
S'0x05'
p461
sS'high_fuses'
p462
S'0xde'
p463
sS'low_fuses'
p464
S'0xff'
p465
sS'lock_bits'
p466
S'0x0F'
p467
sS'file'
p468
S'optiboot_atmega328.hex'
p469
sS'path'
p470
S'optiboot'
p471
sS'unlock_bits'
p472
S'0x3F'
p473
ssS'build'
p474
(dp475
S'f_cpu'
p476
S'16000000L'
p477
sS'mcu'
p478
S'atmega328p'
p479
sS'variant'
p480
S'standard'
p481
sS'core'
p482
S'arduino'
p483
ssS'name'
p484
S'Arduino Ethernet'
p485
sS'upload'
p486
(dp487
S'speed'
p488
S'115200'
p489
sS'maximum_size'
p490
S'32256'
p491
sS'protocol'
p492
S'arduino'
p493
ssaa(lp494
S'fio'
p495
a(dp496
S'bootloader'
p497
(dp498
S'extended_fuses'
p499
S'0x05'
p500
sS'high_fuses'
p501
S'0xDA'
p502
sS'low_fuses'
p503
S'0xFF'
p504
sS'lock_bits'
p505
S'0x0F'
p506
sS'file'
p507
S'ATmegaBOOT_168_atmega328_pro_8MHz.hex'
p508
sS'path'
p509
S'arduino:atmega'
p510
sS'unlock_bits'
p511
S'0x3F'
p512
ssS'build'
p513
(dp514
S'core'
p515
S'arduino'
p516
sS'mcu'
p517
S'atmega328p'
p518
sS'f_cpu'
p519
S'8000000L'
p520
sS'variant'
p521
S'eightanaloginputs'
p522
ssS'name'
p523
S'Arduino Fio'
p524
sS'upload'
p525
(dp526
S'speed'
p527
S'57600'
p528
sS'maximum_size'
p529
S'30720'
p530
sS'protocol'
p531
S'arduino'
p532
ssaa(lp533
S'bt328'
p534
a(dp535
S'bootloader'
p536
(dp537
S'extended_fuses'
p538
S'0x05'
p539
sS'high_fuses'
p540
S'0xd8'
p541
sS'low_fuses'
p542
S'0xff'
p543
sS'lock_bits'
p544
S'0x0F'
p545
sS'file'
p546
S'ATmegaBOOT_168_atmega328_bt.hex'
p547
sS'path'
p548
S'bt'
p549
sS'unlock_bits'
p550
S'0x3F'
p551
ssS'build'
p552
(dp553
S'core'
p554
S'arduino'
p555
sS'mcu'
p556
S'atmega328p'
p557
sS'f_cpu'
p558
S'16000000L'
p559
sS'variant'
p560
S'eightanaloginputs'
p561
ssS'name'
p562
S'Arduino BT w/ ATmega328'
p563
sS'upload'
p564
(dp565
S'speed'
p566
S'19200'
p567
sS'maximum_size'
p568
S'28672'
p569
sS'protocol'
p570
S'arduino'
p571
sS'disable_flushing'
p572
S'true'
p573
ssaa(lp574
S'bt'
p575
a(dp576
S'bootloader'
p577
(dp578
S'extended_fuses'
p579
S'0x00'
p580
sS'high_fuses'
p581
S'0xdd'
p582
sS'low_fuses'
p583
S'0xff'
p584
sS'lock_bits'
p585
S'0x0F'
p586
sS'file'
p587
S'ATmegaBOOT_168.hex'
p588
sS'path'
p589
S'bt'
p590
sS'unlock_bits'
p591
S'0x3F'
p592
ssS'build'
p593
(dp594
S'core'
p595
S'arduino'
p596
sS'mcu'
p597
S'atmega168'
p598
sS'f_cpu'
p599
S'16000000L'
p600
sS'variant'
p601
S'eightanaloginputs'
p602
ssS'name'
p603
S'Arduino BT w/ ATmega168'
p604
sS'upload'
p605
(dp606
S'speed'
p607
S'19200'
p608
sS'maximum_size'
p609
S'14336'
p610
sS'protocol'
p611
S'arduino'
p612
sS'disable_flushing'
p613
S'true'
p614
ssaa(lp615
S'lilypad328'
p616
a(dp617
S'bootloader'
p618
(dp619
S'extended_fuses'
p620
S'0x05'
p621
sS'high_fuses'
p622
S'0xDA'
p623
sS'low_fuses'
p624
S'0xFF'
p625
sS'lock_bits'
p626
S'0x0F'
p627
sS'file'
p628
S'ATmegaBOOT_168_atmega328_pro_8MHz.hex'
p629
sS'path'
p630
S'atmega'
p631
sS'unlock_bits'
p632
S'0x3F'
p633
ssS'build'
p634
(dp635
S'core'
p636
S'arduino'
p637
sS'mcu'
p638
S'atmega328p'
p639
sS'f_cpu'
p640
S'8000000L'
p641
sS'variant'
p642
S'standard'
p643
ssS'name'
p644
S'LilyPad Arduino w/ ATmega328'
p645
sS'upload'
p646
(dp647
S'speed'
p648
S'57600'
p649
sS'maximum_size'
p650
S'30720'
p651
sS'protocol'
p652
S'arduino'
p653
ssaa(lp654
S'lilypad'
p655
a(dp656
S'bootloader'
p657
(dp658
S'extended_fuses'
p659
S'0x00'
p660
sS'high_fuses'
p661
S'0xdd'
p662
sS'low_fuses'
p663
S'0xe2'
p664
sS'lock_bits'
p665
S'0x0F'
p666
sS'file'
p667
S'LilyPadBOOT_168.hex'
p668
sS'path'
p669
S'lilypad'
p670
sS'unlock_bits'
p671
S'0x3F'
p672
ssS'build'
p673
(dp674
S'core'
p675
S'arduino'
p676
sS'mcu'
p677
S'atmega168'
p678
sS'f_cpu'
p679
S'8000000L'
p680
sS'variant'
p681
S'standard'
p682
ssS'name'
p683
S'LilyPad Arduino w/ ATmega168'
p684
sS'upload'
p685
(dp686
S'speed'
p687
S'19200'
p688
sS'maximum_size'
p689
S'14336'
p690
sS'protocol'
p691
S'arduino'
p692
ssaa(lp693
S'pro5v328'
p694
a(dp695
S'bootloader'
p696
(dp697
S'extended_fuses'
p698
S'0x05'
p699
sS'high_fuses'
p700
S'0xDA'
p701
sS'low_fuses'
p702
S'0xFF'
p703
sS'lock_bits'
p704
S'0x0F'
p705
sS'file'
p706
S'ATmegaBOOT_168_atmega328.hex'
p707
sS'path'
p708
S'atmega'
p709
sS'unlock_bits'
p710
S'0x3F'
p711
ssS'build'
p712
(dp713
S'core'
p714
S'arduino'
p715
sS'mcu'
p716
S'atmega328p'
p717
sS'f_cpu'
p718
S'16000000L'
p719
sS'variant'
p720
S'standard'
p721
ssS'name'
p722
S'Arduino Pro or Pro Mini (5V, 16 MHz) w/ ATmega328'
p723
sS'upload'
p724
(dp725
S'speed'
p726
S'57600'
p727
sS'maximum_size'
p728
S'30720'
p729
sS'protocol'
p730
S'arduino'
p731
ssaa(lp732
S'pro5v'
p733
a(dp734
S'bootloader'
p735
(dp736
S'extended_fuses'
p737
S'0x00'
p738
sS'high_fuses'
p739
S'0xdd'
p740
sS'low_fuses'
p741
S'0xff'
p742
sS'lock_bits'
p743
S'0x0F'
p744
sS'file'
p745
S'ATmegaBOOT_168_diecimila.hex'
p746
sS'path'
p747
S'atmega'
p748
sS'unlock_bits'
p749
S'0x3F'
p750
ssS'build'
p751
(dp752
S'core'
p753
S'arduino'
p754
sS'mcu'
p755
S'atmega168'
p756
sS'f_cpu'
p757
S'16000000L'
p758
sS'variant'
p759
S'standard'
p760
ssS'name'
p761
S'Arduino Pro or Pro Mini (5V, 16 MHz) w/ ATmega168'
p762
sS'upload'
p763
(dp764
S'speed'
p765
S'19200'
p766
sS'maximum_size'
p767
S'14336'
p768
sS'protocol'
p769
S'arduino'
p770
ssaa(lp771
S'pro328'
p772
a(dp773
S'bootloader'
p774
(dp775
S'extended_fuses'
p776
S'0x05'
p777
sS'high_fuses'
p778
S'0xDA'
p779
sS'low_fuses'
p780
S'0xFF'
p781
sS'lock_bits'
p782
S'0x0F'
p783
sS'file'
p784
S'ATmegaBOOT_168_atmega328_pro_8MHz.hex'
p785
sS'path'
p786
S'atmega'
p787
sS'unlock_bits'
p788
S'0x3F'
p789
ssS'build'
p790
(dp791
S'core'
p792
S'arduino'
p793
sS'mcu'
p794
S'atmega328p'
p795
sS'f_cpu'
p796
S'8000000L'
p797
sS'variant'
p798
S'standard'
p799
ssS'name'
p800
S'Arduino Pro or Pro Mini (3.3V, 8 MHz) w/ ATmega328'
p801
sS'upload'
p802
(dp803
S'speed'
p804
S'57600'
p805
sS'maximum_size'
p806
S'30720'
p807
sS'protocol'
p808
S'arduino'
p809
ssaa(lp810
S'pro'
p811
a(dp812
S'bootloader'
p813
(dp814
S'extended_fuses'
p815
S'0x00'
p816
sS'high_fuses'
p817
S'0xdd'
p818
sS'low_fuses'
p819
S'0xc6'
p820
sS'lock_bits'
p821
S'0x0F'
p822
sS'file'
p823
S'ATmegaBOOT_168_pro_8MHz.hex'
p824
sS'path'
p825
S'atmega'
p826
sS'unlock_bits'
p827
S'0x3F'
p828
ssS'build'
p829
(dp830
S'core'
p831
S'arduino'
p832
sS'mcu'
p833
S'atmega168'
p834
sS'f_cpu'
p835
S'8000000L'
p836
sS'variant'
p837
S'standard'
p838
ssS'name'
p839
S'Arduino Pro or Pro Mini (3.3V, 8 MHz) w/ ATmega168'
p840
sS'upload'
p841
(dp842
S'speed'
p843
S'19200'
p844
sS'maximum_size'
p845
S'14336'
p846
sS'protocol'
p847
S'arduino'
p848
ssaa(lp849
S'atmega168'
p850
a(dp851
S'bootloader'
p852
(dp853
S'extended_fuses'
p854
S'0x00'
p855
sS'high_fuses'
p856
S'0xdd'
p857
sS'low_fuses'
p858
S'0xff'
p859
sS'lock_bits'
p860
S'0x0F'
p861
sS'file'
p862
S'ATmegaBOOT_168_ng.hex'
p863
sS'path'
p864
S'atmega'
p865
sS'unlock_bits'
p866
S'0x3F'
p867
ssS'build'
p868
(dp869
S'core'
p870
S'arduino'
p871
sS'mcu'
p872
S'atmega168'
p873
sS'f_cpu'
p874
S'16000000L'
p875
sS'variant'
p876
S'standard'
p877
ssS'name'
p878
S'Arduino NG or older w/ ATmega168'
p879
sS'upload'
p880
(dp881
S'speed'
p882
S'19200'
p883
sS'maximum_size'
p884
S'14336'
p885
sS'protocol'
p886
S'arduino'
p887
ssaa(lp888
S'atmega8'
p889
a(dp890
S'bootloader'
p891
(dp892
S'high_fuses'
p893
S'0xca'
p894
sS'low_fuses'
p895
S'0xdf'
p896
sS'lock_bits'
p897
S'0x0F'
p898
sS'file'
p899
S'ATmegaBOOT.hex'
p900
sS'path'
p901
S'atmega8'
p902
sS'unlock_bits'
p903
S'0x3F'
p904
ssS'build'
p905
(dp906
S'core'
p907
S'arduino'
p908
sS'mcu'
p909
S'atmega8'
p910
sS'f_cpu'
p911
S'16000000L'
p912
sS'variant'
p913
S'standard'
p914
ssS'name'
p915
S'Arduino NG or older w/ ATmega8'
p916
sS'upload'
p917
(dp918
S'speed'
p919
S'19200'
p920
sS'maximum_size'
p921
S'7168'
p922
sS'protocol'
p923
S'arduino'
p924
ssaatp925
Rp926
(dp927
S'default'
p928
S'uno'
p929
sbtp930
a(S'cc'
p931
S'/usr/bin/avr-gcc'
p932
tp933
a(S'cflags'
p934
g2
(g3
g4
(lp935
g8
aS'-ffunction-sections'
p936
aS'-fdata-sections'
p937
aS'-g'
p938
ag6
aS'-w'
p939
aS'-DF_CPU=16000000L'
p940
aS'-DARDUINO=100'
p941
aS'-I/usr/share/arduino/hardware/arduino/cores/arduino'
p942
aS'-DUSB_VID=0x2341'
p943
aS'-DUSB_PID=0x8036'
p944
aS'-I/usr/share/arduino/hardware/arduino/variants/leonardo'
p945
aS'-Ilib/NewPing'
p946
aS'-I/usr/share/arduino/hardware/arduino/cores/arduino'
p947
atp948
Rp949
tp950
a(S'cxxflags'
p951
g2
(g3
g4
(lp952
S'-fno-exceptions'
p953
atp954
Rp955
tp956
a(S'arduino_variants_dir'
p957
S'/usr/share/arduino/hardware/arduino/variants'
p958
tp959
a(S'stty'
p960
S'/bin/stty'
p961
tp962
a(S'version.txt'
p963
S'/usr/share/arduino/lib/version.txt'
p964
tp965
a(S'arduino_core_dir'
p966
g51
tp967
a(S'boards.txt'
p968
S'/usr/share/arduino/hardware/arduino/boards.txt'
p969
tp970
a(S'avrdude.conf'
p971
S'/usr/share/arduino/hardware/tools/avrdude.conf'
p972
tp973
a(S'deps'
p974
g2
(g3
g4
(lp975
S'.build/leonardo/src/dependencies.d'
p976
aS'.build/leonardo/arduino/dependencies.d'
p977
aS'.build/leonardo/NewPing/dependencies.d'
p978
atp979
Rp980
tp981
a.