(lp0
(S'serial'
p1
S'/usr/bin/picocom'
p2
tp3
a(S'build_dir'
p4
S'.build/leonardo'
p5
tp6
a(S'board_models'
p7
cino.environment
BoardModels
p8
((lp9
(lp10
S'uno'
p11
a(dp12
S'build'
p13
(dp14
S'core'
p15
S'arduino'
p16
sS'mcu'
p17
S'atmega328p'
p18
sS'f_cpu'
p19
S'16000000L'
p20
sS'variant'
p21
S'standard'
p22
ssS'bootloader'
p23
(dp24
S'extended_fuses'
p25
S'0x05'
p26
sS'high_fuses'
p27
S'0xde'
p28
sS'low_fuses'
p29
S'0xff'
p30
sS'lock_bits'
p31
S'0x0F'
p32
sS'file'
p33
S'optiboot_atmega328.hex'
p34
sS'path'
p35
S'optiboot'
p36
sS'unlock_bits'
p37
S'0x3F'
p38
ssS'name'
p39
S'Arduino Uno'
p40
sS'upload'
p41
(dp42
S'speed'
p43
S'115200'
p44
sS'maximum_size'
p45
S'32256'
p46
sS'protocol'
p47
S'arduino'
p48
ssaa(lp49
S'atmega328'
p50
a(dp51
S'build'
p52
(dp53
S'core'
p54
S'arduino'
p55
sS'mcu'
p56
S'atmega328p'
p57
sS'f_cpu'
p58
S'16000000L'
p59
sS'variant'
p60
S'standard'
p61
ssS'bootloader'
p62
(dp63
S'extended_fuses'
p64
S'0x05'
p65
sS'high_fuses'
p66
S'0xDA'
p67
sS'low_fuses'
p68
S'0xFF'
p69
sS'lock_bits'
p70
S'0x0F'
p71
sS'file'
p72
S'ATmegaBOOT_168_atmega328.hex'
p73
sS'path'
p74
S'atmega'
p75
sS'unlock_bits'
p76
S'0x3F'
p77
ssS'name'
p78
S'Arduino Duemilanove w/ ATmega328'
p79
sS'upload'
p80
(dp81
S'speed'
p82
S'57600'
p83
sS'maximum_size'
p84
S'30720'
p85
sS'protocol'
p86
S'arduino'
p87
ssaa(lp88
S'diecimila'
p89
a(dp90
S'build'
p91
(dp92
S'core'
p93
S'arduino'
p94
sS'mcu'
p95
S'atmega168'
p96
sS'f_cpu'
p97
S'16000000L'
p98
sS'variant'
p99
S'standard'
p100
ssS'bootloader'
p101
(dp102
S'extended_fuses'
p103
S'0x00'
p104
sS'high_fuses'
p105
S'0xdd'
p106
sS'low_fuses'
p107
S'0xff'
p108
sS'lock_bits'
p109
S'0x0F'
p110
sS'file'
p111
S'ATmegaBOOT_168_diecimila.hex'
p112
sS'path'
p113
S'atmega'
p114
sS'unlock_bits'
p115
S'0x3F'
p116
ssS'name'
p117
S'Arduino Diecimila or Duemilanove w/ ATmega168'
p118
sS'upload'
p119
(dp120
S'speed'
p121
S'19200'
p122
sS'maximum_size'
p123
S'14336'
p124
sS'protocol'
p125
S'arduino'
p126
ssaa(lp127
S'nano328'
p128
a(dp129
S'build'
p130
(dp131
S'core'
p132
S'arduino'
p133
sS'mcu'
p134
S'atmega328p'
p135
sS'f_cpu'
p136
S'16000000L'
p137
sS'variant'
p138
S'eightanaloginputs'
p139
ssS'bootloader'
p140
(dp141
S'extended_fuses'
p142
S'0x05'
p143
sS'high_fuses'
p144
S'0xDA'
p145
sS'low_fuses'
p146
S'0xFF'
p147
sS'lock_bits'
p148
S'0x0F'
p149
sS'file'
p150
S'ATmegaBOOT_168_atmega328.hex'
p151
sS'path'
p152
S'atmega'
p153
sS'unlock_bits'
p154
S'0x3F'
p155
ssS'name'
p156
S'Arduino Nano w/ ATmega328'
p157
sS'upload'
p158
(dp159
S'speed'
p160
S'57600'
p161
sS'maximum_size'
p162
S'30720'
p163
sS'protocol'
p164
S'arduino'
p165
ssaa(lp166
S'nano'
p167
a(dp168
S'build'
p169
(dp170
S'core'
p171
S'arduino'
p172
sS'mcu'
p173
S'atmega168'
p174
sS'f_cpu'
p175
S'16000000L'
p176
sS'variant'
p177
S'eightanaloginputs'
p178
ssS'bootloader'
p179
(dp180
S'extended_fuses'
p181
S'0x00'
p182
sS'high_fuses'
p183
S'0xdd'
p184
sS'low_fuses'
p185
S'0xff'
p186
sS'lock_bits'
p187
S'0x0F'
p188
sS'file'
p189
S'ATmegaBOOT_168_diecimila.hex'
p190
sS'path'
p191
S'atmega'
p192
sS'unlock_bits'
p193
S'0x3F'
p194
ssS'name'
p195
S'Arduino Nano w/ ATmega168'
p196
sS'upload'
p197
(dp198
S'speed'
p199
S'19200'
p200
sS'maximum_size'
p201
S'14336'
p202
sS'protocol'
p203
S'arduino'
p204
ssaa(lp205
S'mega2560'
p206
a(dp207
S'build'
p208
(dp209
S'core'
p210
S'arduino'
p211
sS'mcu'
p212
S'atmega2560'
p213
sS'f_cpu'
p214
S'16000000L'
p215
sS'variant'
p216
S'mega'
p217
ssS'bootloader'
p218
(dp219
S'extended_fuses'
p220
S'0xFD'
p221
sS'high_fuses'
p222
S'0xD8'
p223
sS'low_fuses'
p224
S'0xFF'
p225
sS'lock_bits'
p226
S'0x0F'
p227
sS'file'
p228
S'stk500boot_v2_mega2560.hex'
p229
sS'path'
p230
S'stk500v2'
p231
sS'unlock_bits'
p232
S'0x3F'
p233
ssS'name'
p234
S'Arduino Mega 2560 or Mega ADK'
p235
sS'upload'
p236
(dp237
S'speed'
p238
S'115200'
p239
sS'maximum_size'
p240
S'258048'
p241
sS'protocol'
p242
S'stk500v2'
p243
ssaa(lp244
S'mega'
p245
a(dp246
S'build'
p247
(dp248
S'core'
p249
S'arduino'
p250
sS'mcu'
p251
S'atmega1280'
p252
sS'f_cpu'
p253
S'16000000L'
p254
sS'variant'
p255
S'mega'
p256
ssS'bootloader'
p257
(dp258
S'extended_fuses'
p259
S'0xF5'
p260
sS'high_fuses'
p261
S'0xDA'
p262
sS'low_fuses'
p263
S'0xFF'
p264
sS'lock_bits'
p265
S'0x0F'
p266
sS'file'
p267
S'ATmegaBOOT_168_atmega1280.hex'
p268
sS'path'
p269
S'atmega'
p270
sS'unlock_bits'
p271
S'0x3F'
p272
ssS'name'
p273
S'Arduino Mega (ATmega1280)'
p274
sS'upload'
p275
(dp276
S'speed'
p277
S'57600'
p278
sS'maximum_size'
p279
S'126976'
p280
sS'protocol'
p281
S'arduino'
p282
ssaa(lp283
S'leonardo'
p284
a(dp285
S'build'
p286
(dp287
S'core'
p288
S'arduino'
p289
sS'f_cpu'
p290
S'16000000L'
p291
sS'vid'
p292
S'0x2341'
p293
sS'pid'
p294
S'0x8036'
p295
sS'variant'
p296
S'leonardo'
p297
sS'mcu'
p298
S'atmega32u4'
p299
ssS'bootloader'
p300
(dp301
S'extended_fuses'
p302
S'0xcb'
p303
sS'high_fuses'
p304
S'0xd8'
p305
sS'low_fuses'
p306
S'0xff'
p307
sS'lock_bits'
p308
S'0x2F'
p309
sS'file'
p310
S'Caterina-Leonardo.hex'
p311
sS'path'
p312
S'caterina'
p313
sS'unlock_bits'
p314
S'0x3F'
p315
ssS'name'
p316
S'Arduino Leonardo'
p317
sS'upload'
p318
(dp319
S'speed'
p320
S'57600'
p321
sS'maximum_size'
p322
S'28672'
p323
sS'protocol'
p324
S'avr109'
p325
sS'disable_flushing'
p326
S'true'
p327
ssaa(lp328
S'mini328'
p329
a(dp330
S'build'
p331
(dp332
S'core'
p333
S'arduino'
p334
sS'mcu'
p335
S'atmega328p'
p336
sS'f_cpu'
p337
S'16000000L'
p338
sS'variant'
p339
S'eightanaloginputs'
p340
ssS'bootloader'
p341
(dp342
S'extended_fuses'
p343
S'0x05'
p344
sS'high_fuses'
p345
S'0xd8'
p346
sS'low_fuses'
p347
S'0xff'
p348
sS'lock_bits'
p349
S'0x0F'
p350
sS'file'
p351
S'optiboot_atmega328-Mini.hex'
p352
sS'path'
p353
S'optiboot'
p354
sS'unlock_bits'
p355
S'0x3F'
p356
ssS'name'
p357
S'Arduino Mini w/ ATmega328'
p358
sS'upload'
p359
(dp360
S'speed'
p361
S'115200'
p362
sS'maximum_size'
p363
S'28672'
p364
sS'protocol'
p365
S'arduino'
p366
ssaa(lp367
S'mini'
p368
a(dp369
S'build'
p370
(dp371
S'core'
p372
S'arduino'
p373
sS'mcu'
p374
S'atmega168'
p375
sS'f_cpu'
p376
S'16000000L'
p377
sS'variant'
p378
S'eightanaloginputs'
p379
ssS'bootloader'
p380
(dp381
S'extended_fuses'
p382
S'0x00'
p383
sS'high_fuses'
p384
S'0xdd'
p385
sS'low_fuses'
p386
S'0xff'
p387
sS'lock_bits'
p388
S'0x0F'
p389
sS'file'
p390
S'ATmegaBOOT_168_ng.hex'
p391
sS'path'
p392
S'atmega'
p393
sS'unlock_bits'
p394
S'0x3F'
p395
ssS'name'
p396
S'Arduino Mini w/ ATmega168'
p397
sS'upload'
p398
(dp399
S'speed'
p400
S'19200'
p401
sS'maximum_size'
p402
S'14336'
p403
sS'protocol'
p404
S'arduino'
p405
ssaa(lp406
S'ethernet'
p407
a(dp408
S'build'
p409
(dp410
S'f_cpu'
p411
S'16000000L'
p412
sS'mcu'
p413
S'atmega328p'
p414
sS'variant'
p415
S'standard'
p416
sS'core'
p417
S'arduino'
p418
ssS'bootloader'
p419
(dp420
S'extended_fuses'
p421
S'0x05'
p422
sS'high_fuses'
p423
S'0xde'
p424
sS'low_fuses'
p425
S'0xff'
p426
sS'lock_bits'
p427
S'0x0F'
p428
sS'file'
p429
S'optiboot_atmega328.hex'
p430
sS'path'
p431
S'optiboot'
p432
sS'unlock_bits'
p433
S'0x3F'
p434
ssS'name'
p435
S'Arduino Ethernet'
p436
sS'upload'
p437
(dp438
S'speed'
p439
S'115200'
p440
sS'maximum_size'
p441
S'32256'
p442
sS'protocol'
p443
S'arduino'
p444
ssaa(lp445
S'fio'
p446
a(dp447
S'build'
p448
(dp449
S'core'
p450
S'arduino'
p451
sS'mcu'
p452
S'atmega328p'
p453
sS'f_cpu'
p454
S'8000000L'
p455
sS'variant'
p456
S'eightanaloginputs'
p457
ssS'bootloader'
p458
(dp459
S'extended_fuses'
p460
S'0x05'
p461
sS'high_fuses'
p462
S'0xDA'
p463
sS'low_fuses'
p464
S'0xFF'
p465
sS'lock_bits'
p466
S'0x0F'
p467
sS'file'
p468
S'ATmegaBOOT_168_atmega328_pro_8MHz.hex'
p469
sS'path'
p470
S'arduino:atmega'
p471
sS'unlock_bits'
p472
S'0x3F'
p473
ssS'name'
p474
S'Arduino Fio'
p475
sS'upload'
p476
(dp477
S'speed'
p478
S'57600'
p479
sS'maximum_size'
p480
S'30720'
p481
sS'protocol'
p482
S'arduino'
p483
ssaa(lp484
S'bt328'
p485
a(dp486
S'build'
p487
(dp488
S'core'
p489
S'arduino'
p490
sS'mcu'
p491
S'atmega328p'
p492
sS'f_cpu'
p493
S'16000000L'
p494
sS'variant'
p495
S'eightanaloginputs'
p496
ssS'bootloader'
p497
(dp498
S'extended_fuses'
p499
S'0x05'
p500
sS'high_fuses'
p501
S'0xd8'
p502
sS'low_fuses'
p503
S'0xff'
p504
sS'lock_bits'
p505
S'0x0F'
p506
sS'file'
p507
S'ATmegaBOOT_168_atmega328_bt.hex'
p508
sS'path'
p509
S'bt'
p510
sS'unlock_bits'
p511
S'0x3F'
p512
ssS'name'
p513
S'Arduino BT w/ ATmega328'
p514
sS'upload'
p515
(dp516
S'speed'
p517
S'19200'
p518
sS'maximum_size'
p519
S'28672'
p520
sS'protocol'
p521
S'arduino'
p522
sS'disable_flushing'
p523
S'true'
p524
ssaa(lp525
S'bt'
p526
a(dp527
S'build'
p528
(dp529
S'core'
p530
S'arduino'
p531
sS'mcu'
p532
S'atmega168'
p533
sS'f_cpu'
p534
S'16000000L'
p535
sS'variant'
p536
S'eightanaloginputs'
p537
ssS'bootloader'
p538
(dp539
S'extended_fuses'
p540
S'0x00'
p541
sS'high_fuses'
p542
S'0xdd'
p543
sS'low_fuses'
p544
S'0xff'
p545
sS'lock_bits'
p546
S'0x0F'
p547
sS'file'
p548
S'ATmegaBOOT_168.hex'
p549
sS'path'
p550
S'bt'
p551
sS'unlock_bits'
p552
S'0x3F'
p553
ssS'name'
p554
S'Arduino BT w/ ATmega168'
p555
sS'upload'
p556
(dp557
S'speed'
p558
S'19200'
p559
sS'maximum_size'
p560
S'14336'
p561
sS'protocol'
p562
S'arduino'
p563
sS'disable_flushing'
p564
S'true'
p565
ssaa(lp566
S'lilypad328'
p567
a(dp568
S'build'
p569
(dp570
S'core'
p571
S'arduino'
p572
sS'mcu'
p573
S'atmega328p'
p574
sS'f_cpu'
p575
S'8000000L'
p576
sS'variant'
p577
S'standard'
p578
ssS'bootloader'
p579
(dp580
S'extended_fuses'
p581
S'0x05'
p582
sS'high_fuses'
p583
S'0xDA'
p584
sS'low_fuses'
p585
S'0xFF'
p586
sS'lock_bits'
p587
S'0x0F'
p588
sS'file'
p589
S'ATmegaBOOT_168_atmega328_pro_8MHz.hex'
p590
sS'path'
p591
S'atmega'
p592
sS'unlock_bits'
p593
S'0x3F'
p594
ssS'name'
p595
S'LilyPad Arduino w/ ATmega328'
p596
sS'upload'
p597
(dp598
S'speed'
p599
S'57600'
p600
sS'maximum_size'
p601
S'30720'
p602
sS'protocol'
p603
S'arduino'
p604
ssaa(lp605
S'lilypad'
p606
a(dp607
S'build'
p608
(dp609
S'core'
p610
S'arduino'
p611
sS'mcu'
p612
S'atmega168'
p613
sS'f_cpu'
p614
S'8000000L'
p615
sS'variant'
p616
S'standard'
p617
ssS'bootloader'
p618
(dp619
S'extended_fuses'
p620
S'0x00'
p621
sS'high_fuses'
p622
S'0xdd'
p623
sS'low_fuses'
p624
S'0xe2'
p625
sS'lock_bits'
p626
S'0x0F'
p627
sS'file'
p628
S'LilyPadBOOT_168.hex'
p629
sS'path'
p630
S'lilypad'
p631
sS'unlock_bits'
p632
S'0x3F'
p633
ssS'name'
p634
S'LilyPad Arduino w/ ATmega168'
p635
sS'upload'
p636
(dp637
S'speed'
p638
S'19200'
p639
sS'maximum_size'
p640
S'14336'
p641
sS'protocol'
p642
S'arduino'
p643
ssaa(lp644
S'pro5v328'
p645
a(dp646
S'build'
p647
(dp648
S'core'
p649
S'arduino'
p650
sS'mcu'
p651
S'atmega328p'
p652
sS'f_cpu'
p653
S'16000000L'
p654
sS'variant'
p655
S'standard'
p656
ssS'bootloader'
p657
(dp658
S'extended_fuses'
p659
S'0x05'
p660
sS'high_fuses'
p661
S'0xDA'
p662
sS'low_fuses'
p663
S'0xFF'
p664
sS'lock_bits'
p665
S'0x0F'
p666
sS'file'
p667
S'ATmegaBOOT_168_atmega328.hex'
p668
sS'path'
p669
S'atmega'
p670
sS'unlock_bits'
p671
S'0x3F'
p672
ssS'name'
p673
S'Arduino Pro or Pro Mini (5V, 16 MHz) w/ ATmega328'
p674
sS'upload'
p675
(dp676
S'speed'
p677
S'57600'
p678
sS'maximum_size'
p679
S'30720'
p680
sS'protocol'
p681
S'arduino'
p682
ssaa(lp683
S'pro5v'
p684
a(dp685
S'build'
p686
(dp687
S'core'
p688
S'arduino'
p689
sS'mcu'
p690
S'atmega168'
p691
sS'f_cpu'
p692
S'16000000L'
p693
sS'variant'
p694
S'standard'
p695
ssS'bootloader'
p696
(dp697
S'extended_fuses'
p698
S'0x00'
p699
sS'high_fuses'
p700
S'0xdd'
p701
sS'low_fuses'
p702
S'0xff'
p703
sS'lock_bits'
p704
S'0x0F'
p705
sS'file'
p706
S'ATmegaBOOT_168_diecimila.hex'
p707
sS'path'
p708
S'atmega'
p709
sS'unlock_bits'
p710
S'0x3F'
p711
ssS'name'
p712
S'Arduino Pro or Pro Mini (5V, 16 MHz) w/ ATmega168'
p713
sS'upload'
p714
(dp715
S'speed'
p716
S'19200'
p717
sS'maximum_size'
p718
S'14336'
p719
sS'protocol'
p720
S'arduino'
p721
ssaa(lp722
S'pro328'
p723
a(dp724
S'build'
p725
(dp726
S'core'
p727
S'arduino'
p728
sS'mcu'
p729
S'atmega328p'
p730
sS'f_cpu'
p731
S'8000000L'
p732
sS'variant'
p733
S'standard'
p734
ssS'bootloader'
p735
(dp736
S'extended_fuses'
p737
S'0x05'
p738
sS'high_fuses'
p739
S'0xDA'
p740
sS'low_fuses'
p741
S'0xFF'
p742
sS'lock_bits'
p743
S'0x0F'
p744
sS'file'
p745
S'ATmegaBOOT_168_atmega328_pro_8MHz.hex'
p746
sS'path'
p747
S'atmega'
p748
sS'unlock_bits'
p749
S'0x3F'
p750
ssS'name'
p751
S'Arduino Pro or Pro Mini (3.3V, 8 MHz) w/ ATmega328'
p752
sS'upload'
p753
(dp754
S'speed'
p755
S'57600'
p756
sS'maximum_size'
p757
S'30720'
p758
sS'protocol'
p759
S'arduino'
p760
ssaa(lp761
S'pro'
p762
a(dp763
S'build'
p764
(dp765
S'core'
p766
S'arduino'
p767
sS'mcu'
p768
S'atmega168'
p769
sS'f_cpu'
p770
S'8000000L'
p771
sS'variant'
p772
S'standard'
p773
ssS'bootloader'
p774
(dp775
S'extended_fuses'
p776
S'0x00'
p777
sS'high_fuses'
p778
S'0xdd'
p779
sS'low_fuses'
p780
S'0xc6'
p781
sS'lock_bits'
p782
S'0x0F'
p783
sS'file'
p784
S'ATmegaBOOT_168_pro_8MHz.hex'
p785
sS'path'
p786
S'atmega'
p787
sS'unlock_bits'
p788
S'0x3F'
p789
ssS'name'
p790
S'Arduino Pro or Pro Mini (3.3V, 8 MHz) w/ ATmega168'
p791
sS'upload'
p792
(dp793
S'speed'
p794
S'19200'
p795
sS'maximum_size'
p796
S'14336'
p797
sS'protocol'
p798
S'arduino'
p799
ssaa(lp800
S'atmega168'
p801
a(dp802
S'build'
p803
(dp804
S'core'
p805
S'arduino'
p806
sS'mcu'
p807
S'atmega168'
p808
sS'f_cpu'
p809
S'16000000L'
p810
sS'variant'
p811
S'standard'
p812
ssS'bootloader'
p813
(dp814
S'extended_fuses'
p815
S'0x00'
p816
sS'high_fuses'
p817
S'0xdd'
p818
sS'low_fuses'
p819
S'0xff'
p820
sS'lock_bits'
p821
S'0x0F'
p822
sS'file'
p823
S'ATmegaBOOT_168_ng.hex'
p824
sS'path'
p825
S'atmega'
p826
sS'unlock_bits'
p827
S'0x3F'
p828
ssS'name'
p829
S'Arduino NG or older w/ ATmega168'
p830
sS'upload'
p831
(dp832
S'speed'
p833
S'19200'
p834
sS'maximum_size'
p835
S'14336'
p836
sS'protocol'
p837
S'arduino'
p838
ssaa(lp839
S'atmega8'
p840
a(dp841
S'build'
p842
(dp843
S'core'
p844
S'arduino'
p845
sS'mcu'
p846
S'atmega8'
p847
sS'f_cpu'
p848
S'16000000L'
p849
sS'variant'
p850
S'standard'
p851
ssS'bootloader'
p852
(dp853
S'high_fuses'
p854
S'0xca'
p855
sS'low_fuses'
p856
S'0xdf'
p857
sS'lock_bits'
p858
S'0x0F'
p859
sS'file'
p860
S'ATmegaBOOT.hex'
p861
sS'path'
p862
S'atmega8'
p863
sS'unlock_bits'
p864
S'0x3F'
p865
ssS'name'
p866
S'Arduino NG or older w/ ATmega8'
p867
sS'upload'
p868
(dp869
S'speed'
p870
S'19200'
p871
sS'maximum_size'
p872
S'7168'
p873
sS'protocol'
p874
S'arduino'
p875
ssaatp876
Rp877
(dp878
S'default'
p879
S'uno'
p880
sbtp881
a(S'boards.txt'
p882
S'/usr/share/arduino/hardware/arduino/boards.txt'
p883
tp884
a.