(lp0
(S'serial'
p1
S'/usr/bin/picocom'
p2
tp3
a(S'boards.txt'
p4
S'/usr/share/arduino/hardware/arduino/boards.txt'
p5
tp6
a(S'build_dir'
p7
S'.build/leonardo'
p8
tp9
a(S'board_models'
p10
cino.environment
BoardModels
p11
((lp12
(lp13
S'uno'
p14
a(dp15
S'bootloader'
p16
(dp17
S'extended_fuses'
p18
S'0x05'
p19
sS'high_fuses'
p20
S'0xde'
p21
sS'low_fuses'
p22
S'0xff'
p23
sS'lock_bits'
p24
S'0x0F'
p25
sS'file'
p26
S'optiboot_atmega328.hex'
p27
sS'path'
p28
S'optiboot'
p29
sS'unlock_bits'
p30
S'0x3F'
p31
ssS'upload'
p32
(dp33
S'protocol'
p34
S'arduino'
p35
sS'maximum_size'
p36
S'32256'
p37
sS'speed'
p38
S'115200'
p39
ssS'build'
p40
(dp41
S'core'
p42
S'arduino'
p43
sS'mcu'
p44
S'atmega328p'
p45
sS'f_cpu'
p46
S'16000000L'
p47
sS'variant'
p48
S'standard'
p49
ssS'name'
p50
S'Arduino Uno'
p51
saa(lp52
S'atmega328'
p53
a(dp54
S'bootloader'
p55
(dp56
S'extended_fuses'
p57
S'0x05'
p58
sS'high_fuses'
p59
S'0xDA'
p60
sS'low_fuses'
p61
S'0xFF'
p62
sS'lock_bits'
p63
S'0x0F'
p64
sS'file'
p65
S'ATmegaBOOT_168_atmega328.hex'
p66
sS'path'
p67
S'atmega'
p68
sS'unlock_bits'
p69
S'0x3F'
p70
ssS'upload'
p71
(dp72
S'protocol'
p73
S'arduino'
p74
sS'maximum_size'
p75
S'30720'
p76
sS'speed'
p77
S'57600'
p78
ssS'build'
p79
(dp80
S'core'
p81
S'arduino'
p82
sS'mcu'
p83
S'atmega328p'
p84
sS'f_cpu'
p85
S'16000000L'
p86
sS'variant'
p87
S'standard'
p88
ssS'name'
p89
S'Arduino Duemilanove w/ ATmega328'
p90
saa(lp91
S'diecimila'
p92
a(dp93
S'bootloader'
p94
(dp95
S'extended_fuses'
p96
S'0x00'
p97
sS'high_fuses'
p98
S'0xdd'
p99
sS'low_fuses'
p100
S'0xff'
p101
sS'lock_bits'
p102
S'0x0F'
p103
sS'file'
p104
S'ATmegaBOOT_168_diecimila.hex'
p105
sS'path'
p106
S'atmega'
p107
sS'unlock_bits'
p108
S'0x3F'
p109
ssS'upload'
p110
(dp111
S'protocol'
p112
S'arduino'
p113
sS'maximum_size'
p114
S'14336'
p115
sS'speed'
p116
S'19200'
p117
ssS'build'
p118
(dp119
S'core'
p120
S'arduino'
p121
sS'mcu'
p122
S'atmega168'
p123
sS'f_cpu'
p124
S'16000000L'
p125
sS'variant'
p126
S'standard'
p127
ssS'name'
p128
S'Arduino Diecimila or Duemilanove w/ ATmega168'
p129
saa(lp130
S'nano328'
p131
a(dp132
S'bootloader'
p133
(dp134
S'extended_fuses'
p135
S'0x05'
p136
sS'high_fuses'
p137
S'0xDA'
p138
sS'low_fuses'
p139
S'0xFF'
p140
sS'lock_bits'
p141
S'0x0F'
p142
sS'file'
p143
S'ATmegaBOOT_168_atmega328.hex'
p144
sS'path'
p145
S'atmega'
p146
sS'unlock_bits'
p147
S'0x3F'
p148
ssS'upload'
p149
(dp150
S'protocol'
p151
S'arduino'
p152
sS'maximum_size'
p153
S'30720'
p154
sS'speed'
p155
S'57600'
p156
ssS'build'
p157
(dp158
S'core'
p159
S'arduino'
p160
sS'mcu'
p161
S'atmega328p'
p162
sS'f_cpu'
p163
S'16000000L'
p164
sS'variant'
p165
S'eightanaloginputs'
p166
ssS'name'
p167
S'Arduino Nano w/ ATmega328'
p168
saa(lp169
S'nano'
p170
a(dp171
S'bootloader'
p172
(dp173
S'extended_fuses'
p174
S'0x00'
p175
sS'high_fuses'
p176
S'0xdd'
p177
sS'low_fuses'
p178
S'0xff'
p179
sS'lock_bits'
p180
S'0x0F'
p181
sS'file'
p182
S'ATmegaBOOT_168_diecimila.hex'
p183
sS'path'
p184
S'atmega'
p185
sS'unlock_bits'
p186
S'0x3F'
p187
ssS'upload'
p188
(dp189
S'protocol'
p190
S'arduino'
p191
sS'maximum_size'
p192
S'14336'
p193
sS'speed'
p194
S'19200'
p195
ssS'build'
p196
(dp197
S'core'
p198
S'arduino'
p199
sS'mcu'
p200
S'atmega168'
p201
sS'f_cpu'
p202
S'16000000L'
p203
sS'variant'
p204
S'eightanaloginputs'
p205
ssS'name'
p206
S'Arduino Nano w/ ATmega168'
p207
saa(lp208
S'mega2560'
p209
a(dp210
S'bootloader'
p211
(dp212
S'extended_fuses'
p213
S'0xFD'
p214
sS'high_fuses'
p215
S'0xD8'
p216
sS'low_fuses'
p217
S'0xFF'
p218
sS'lock_bits'
p219
S'0x0F'
p220
sS'file'
p221
S'stk500boot_v2_mega2560.hex'
p222
sS'path'
p223
S'stk500v2'
p224
sS'unlock_bits'
p225
S'0x3F'
p226
ssS'upload'
p227
(dp228
S'protocol'
p229
S'stk500v2'
p230
sS'maximum_size'
p231
S'258048'
p232
sS'speed'
p233
S'115200'
p234
ssS'build'
p235
(dp236
S'core'
p237
S'arduino'
p238
sS'mcu'
p239
S'atmega2560'
p240
sS'f_cpu'
p241
S'16000000L'
p242
sS'variant'
p243
S'mega'
p244
ssS'name'
p245
S'Arduino Mega 2560 or Mega ADK'
p246
saa(lp247
S'mega'
p248
a(dp249
S'bootloader'
p250
(dp251
S'extended_fuses'
p252
S'0xF5'
p253
sS'high_fuses'
p254
S'0xDA'
p255
sS'low_fuses'
p256
S'0xFF'
p257
sS'lock_bits'
p258
S'0x0F'
p259
sS'file'
p260
S'ATmegaBOOT_168_atmega1280.hex'
p261
sS'path'
p262
S'atmega'
p263
sS'unlock_bits'
p264
S'0x3F'
p265
ssS'upload'
p266
(dp267
S'protocol'
p268
S'arduino'
p269
sS'maximum_size'
p270
S'126976'
p271
sS'speed'
p272
S'57600'
p273
ssS'build'
p274
(dp275
S'core'
p276
S'arduino'
p277
sS'mcu'
p278
S'atmega1280'
p279
sS'f_cpu'
p280
S'16000000L'
p281
sS'variant'
p282
S'mega'
p283
ssS'name'
p284
S'Arduino Mega (ATmega1280)'
p285
saa(lp286
S'leonardo'
p287
a(dp288
S'bootloader'
p289
(dp290
S'extended_fuses'
p291
S'0xcb'
p292
sS'high_fuses'
p293
S'0xd8'
p294
sS'low_fuses'
p295
S'0xff'
p296
sS'lock_bits'
p297
S'0x2F'
p298
sS'file'
p299
S'Caterina-Leonardo.hex'
p300
sS'path'
p301
S'caterina'
p302
sS'unlock_bits'
p303
S'0x3F'
p304
ssS'upload'
p305
(dp306
S'protocol'
p307
S'avr109'
p308
sS'maximum_size'
p309
S'28672'
p310
sS'speed'
p311
S'57600'
p312
sS'disable_flushing'
p313
S'true'
p314
ssS'build'
p315
(dp316
S'core'
p317
S'arduino'
p318
sS'f_cpu'
p319
S'16000000L'
p320
sS'vid'
p321
S'0x2341'
p322
sS'pid'
p323
S'0x8036'
p324
sS'variant'
p325
S'leonardo'
p326
sS'mcu'
p327
S'atmega32u4'
p328
ssS'name'
p329
S'Arduino Leonardo'
p330
saa(lp331
S'mini328'
p332
a(dp333
S'bootloader'
p334
(dp335
S'extended_fuses'
p336
S'0x05'
p337
sS'high_fuses'
p338
S'0xd8'
p339
sS'low_fuses'
p340
S'0xff'
p341
sS'lock_bits'
p342
S'0x0F'
p343
sS'file'
p344
S'optiboot_atmega328-Mini.hex'
p345
sS'path'
p346
S'optiboot'
p347
sS'unlock_bits'
p348
S'0x3F'
p349
ssS'upload'
p350
(dp351
S'protocol'
p352
S'arduino'
p353
sS'maximum_size'
p354
S'28672'
p355
sS'speed'
p356
S'115200'
p357
ssS'build'
p358
(dp359
S'core'
p360
S'arduino'
p361
sS'mcu'
p362
S'atmega328p'
p363
sS'f_cpu'
p364
S'16000000L'
p365
sS'variant'
p366
S'eightanaloginputs'
p367
ssS'name'
p368
S'Arduino Mini w/ ATmega328'
p369
saa(lp370
S'mini'
p371
a(dp372
S'bootloader'
p373
(dp374
S'extended_fuses'
p375
S'0x00'
p376
sS'high_fuses'
p377
S'0xdd'
p378
sS'low_fuses'
p379
S'0xff'
p380
sS'lock_bits'
p381
S'0x0F'
p382
sS'file'
p383
S'ATmegaBOOT_168_ng.hex'
p384
sS'path'
p385
S'atmega'
p386
sS'unlock_bits'
p387
S'0x3F'
p388
ssS'upload'
p389
(dp390
S'protocol'
p391
S'arduino'
p392
sS'maximum_size'
p393
S'14336'
p394
sS'speed'
p395
S'19200'
p396
ssS'build'
p397
(dp398
S'core'
p399
S'arduino'
p400
sS'mcu'
p401
S'atmega168'
p402
sS'f_cpu'
p403
S'16000000L'
p404
sS'variant'
p405
S'eightanaloginputs'
p406
ssS'name'
p407
S'Arduino Mini w/ ATmega168'
p408
saa(lp409
S'ethernet'
p410
a(dp411
S'bootloader'
p412
(dp413
S'extended_fuses'
p414
S'0x05'
p415
sS'high_fuses'
p416
S'0xde'
p417
sS'low_fuses'
p418
S'0xff'
p419
sS'lock_bits'
p420
S'0x0F'
p421
sS'file'
p422
S'optiboot_atmega328.hex'
p423
sS'path'
p424
S'optiboot'
p425
sS'unlock_bits'
p426
S'0x3F'
p427
ssS'upload'
p428
(dp429
S'protocol'
p430
S'arduino'
p431
sS'maximum_size'
p432
S'32256'
p433
sS'speed'
p434
S'115200'
p435
ssS'build'
p436
(dp437
S'variant'
p438
S'standard'
p439
sS'mcu'
p440
S'atmega328p'
p441
sS'f_cpu'
p442
S'16000000L'
p443
sS'core'
p444
S'arduino'
p445
ssS'name'
p446
S'Arduino Ethernet'
p447
saa(lp448
S'fio'
p449
a(dp450
S'bootloader'
p451
(dp452
S'extended_fuses'
p453
S'0x05'
p454
sS'high_fuses'
p455
S'0xDA'
p456
sS'low_fuses'
p457
S'0xFF'
p458
sS'lock_bits'
p459
S'0x0F'
p460
sS'file'
p461
S'ATmegaBOOT_168_atmega328_pro_8MHz.hex'
p462
sS'path'
p463
S'arduino:atmega'
p464
sS'unlock_bits'
p465
S'0x3F'
p466
ssS'upload'
p467
(dp468
S'protocol'
p469
S'arduino'
p470
sS'maximum_size'
p471
S'30720'
p472
sS'speed'
p473
S'57600'
p474
ssS'build'
p475
(dp476
S'core'
p477
S'arduino'
p478
sS'mcu'
p479
S'atmega328p'
p480
sS'f_cpu'
p481
S'8000000L'
p482
sS'variant'
p483
S'eightanaloginputs'
p484
ssS'name'
p485
S'Arduino Fio'
p486
saa(lp487
S'bt328'
p488
a(dp489
S'bootloader'
p490
(dp491
S'extended_fuses'
p492
S'0x05'
p493
sS'high_fuses'
p494
S'0xd8'
p495
sS'low_fuses'
p496
S'0xff'
p497
sS'lock_bits'
p498
S'0x0F'
p499
sS'file'
p500
S'ATmegaBOOT_168_atmega328_bt.hex'
p501
sS'path'
p502
S'bt'
p503
sS'unlock_bits'
p504
S'0x3F'
p505
ssS'upload'
p506
(dp507
S'protocol'
p508
S'arduino'
p509
sS'maximum_size'
p510
S'28672'
p511
sS'speed'
p512
S'19200'
p513
sS'disable_flushing'
p514
S'true'
p515
ssS'build'
p516
(dp517
S'core'
p518
S'arduino'
p519
sS'mcu'
p520
S'atmega328p'
p521
sS'f_cpu'
p522
S'16000000L'
p523
sS'variant'
p524
S'eightanaloginputs'
p525
ssS'name'
p526
S'Arduino BT w/ ATmega328'
p527
saa(lp528
S'bt'
p529
a(dp530
S'bootloader'
p531
(dp532
S'extended_fuses'
p533
S'0x00'
p534
sS'high_fuses'
p535
S'0xdd'
p536
sS'low_fuses'
p537
S'0xff'
p538
sS'lock_bits'
p539
S'0x0F'
p540
sS'file'
p541
S'ATmegaBOOT_168.hex'
p542
sS'path'
p543
S'bt'
p544
sS'unlock_bits'
p545
S'0x3F'
p546
ssS'upload'
p547
(dp548
S'protocol'
p549
S'arduino'
p550
sS'maximum_size'
p551
S'14336'
p552
sS'speed'
p553
S'19200'
p554
sS'disable_flushing'
p555
S'true'
p556
ssS'build'
p557
(dp558
S'core'
p559
S'arduino'
p560
sS'mcu'
p561
S'atmega168'
p562
sS'f_cpu'
p563
S'16000000L'
p564
sS'variant'
p565
S'eightanaloginputs'
p566
ssS'name'
p567
S'Arduino BT w/ ATmega168'
p568
saa(lp569
S'lilypad328'
p570
a(dp571
S'bootloader'
p572
(dp573
S'extended_fuses'
p574
S'0x05'
p575
sS'high_fuses'
p576
S'0xDA'
p577
sS'low_fuses'
p578
S'0xFF'
p579
sS'lock_bits'
p580
S'0x0F'
p581
sS'file'
p582
S'ATmegaBOOT_168_atmega328_pro_8MHz.hex'
p583
sS'path'
p584
S'atmega'
p585
sS'unlock_bits'
p586
S'0x3F'
p587
ssS'upload'
p588
(dp589
S'protocol'
p590
S'arduino'
p591
sS'maximum_size'
p592
S'30720'
p593
sS'speed'
p594
S'57600'
p595
ssS'build'
p596
(dp597
S'core'
p598
S'arduino'
p599
sS'mcu'
p600
S'atmega328p'
p601
sS'f_cpu'
p602
S'8000000L'
p603
sS'variant'
p604
S'standard'
p605
ssS'name'
p606
S'LilyPad Arduino w/ ATmega328'
p607
saa(lp608
S'lilypad'
p609
a(dp610
S'bootloader'
p611
(dp612
S'extended_fuses'
p613
S'0x00'
p614
sS'high_fuses'
p615
S'0xdd'
p616
sS'low_fuses'
p617
S'0xe2'
p618
sS'lock_bits'
p619
S'0x0F'
p620
sS'file'
p621
S'LilyPadBOOT_168.hex'
p622
sS'path'
p623
S'lilypad'
p624
sS'unlock_bits'
p625
S'0x3F'
p626
ssS'upload'
p627
(dp628
S'protocol'
p629
S'arduino'
p630
sS'maximum_size'
p631
S'14336'
p632
sS'speed'
p633
S'19200'
p634
ssS'build'
p635
(dp636
S'core'
p637
S'arduino'
p638
sS'mcu'
p639
S'atmega168'
p640
sS'f_cpu'
p641
S'8000000L'
p642
sS'variant'
p643
S'standard'
p644
ssS'name'
p645
S'LilyPad Arduino w/ ATmega168'
p646
saa(lp647
S'pro5v328'
p648
a(dp649
S'bootloader'
p650
(dp651
S'extended_fuses'
p652
S'0x05'
p653
sS'high_fuses'
p654
S'0xDA'
p655
sS'low_fuses'
p656
S'0xFF'
p657
sS'lock_bits'
p658
S'0x0F'
p659
sS'file'
p660
S'ATmegaBOOT_168_atmega328.hex'
p661
sS'path'
p662
S'atmega'
p663
sS'unlock_bits'
p664
S'0x3F'
p665
ssS'upload'
p666
(dp667
S'protocol'
p668
S'arduino'
p669
sS'maximum_size'
p670
S'30720'
p671
sS'speed'
p672
S'57600'
p673
ssS'build'
p674
(dp675
S'core'
p676
S'arduino'
p677
sS'mcu'
p678
S'atmega328p'
p679
sS'f_cpu'
p680
S'16000000L'
p681
sS'variant'
p682
S'standard'
p683
ssS'name'
p684
S'Arduino Pro or Pro Mini (5V, 16 MHz) w/ ATmega328'
p685
saa(lp686
S'pro5v'
p687
a(dp688
S'bootloader'
p689
(dp690
S'extended_fuses'
p691
S'0x00'
p692
sS'high_fuses'
p693
S'0xdd'
p694
sS'low_fuses'
p695
S'0xff'
p696
sS'lock_bits'
p697
S'0x0F'
p698
sS'file'
p699
S'ATmegaBOOT_168_diecimila.hex'
p700
sS'path'
p701
S'atmega'
p702
sS'unlock_bits'
p703
S'0x3F'
p704
ssS'upload'
p705
(dp706
S'protocol'
p707
S'arduino'
p708
sS'maximum_size'
p709
S'14336'
p710
sS'speed'
p711
S'19200'
p712
ssS'build'
p713
(dp714
S'core'
p715
S'arduino'
p716
sS'mcu'
p717
S'atmega168'
p718
sS'f_cpu'
p719
S'16000000L'
p720
sS'variant'
p721
S'standard'
p722
ssS'name'
p723
S'Arduino Pro or Pro Mini (5V, 16 MHz) w/ ATmega168'
p724
saa(lp725
S'pro328'
p726
a(dp727
S'bootloader'
p728
(dp729
S'extended_fuses'
p730
S'0x05'
p731
sS'high_fuses'
p732
S'0xDA'
p733
sS'low_fuses'
p734
S'0xFF'
p735
sS'lock_bits'
p736
S'0x0F'
p737
sS'file'
p738
S'ATmegaBOOT_168_atmega328_pro_8MHz.hex'
p739
sS'path'
p740
S'atmega'
p741
sS'unlock_bits'
p742
S'0x3F'
p743
ssS'upload'
p744
(dp745
S'protocol'
p746
S'arduino'
p747
sS'maximum_size'
p748
S'30720'
p749
sS'speed'
p750
S'57600'
p751
ssS'build'
p752
(dp753
S'core'
p754
S'arduino'
p755
sS'mcu'
p756
S'atmega328p'
p757
sS'f_cpu'
p758
S'8000000L'
p759
sS'variant'
p760
S'standard'
p761
ssS'name'
p762
S'Arduino Pro or Pro Mini (3.3V, 8 MHz) w/ ATmega328'
p763
saa(lp764
S'pro'
p765
a(dp766
S'bootloader'
p767
(dp768
S'extended_fuses'
p769
S'0x00'
p770
sS'high_fuses'
p771
S'0xdd'
p772
sS'low_fuses'
p773
S'0xc6'
p774
sS'lock_bits'
p775
S'0x0F'
p776
sS'file'
p777
S'ATmegaBOOT_168_pro_8MHz.hex'
p778
sS'path'
p779
S'atmega'
p780
sS'unlock_bits'
p781
S'0x3F'
p782
ssS'upload'
p783
(dp784
S'protocol'
p785
S'arduino'
p786
sS'maximum_size'
p787
S'14336'
p788
sS'speed'
p789
S'19200'
p790
ssS'build'
p791
(dp792
S'core'
p793
S'arduino'
p794
sS'mcu'
p795
S'atmega168'
p796
sS'f_cpu'
p797
S'8000000L'
p798
sS'variant'
p799
S'standard'
p800
ssS'name'
p801
S'Arduino Pro or Pro Mini (3.3V, 8 MHz) w/ ATmega168'
p802
saa(lp803
S'atmega168'
p804
a(dp805
S'bootloader'
p806
(dp807
S'extended_fuses'
p808
S'0x00'
p809
sS'high_fuses'
p810
S'0xdd'
p811
sS'low_fuses'
p812
S'0xff'
p813
sS'lock_bits'
p814
S'0x0F'
p815
sS'file'
p816
S'ATmegaBOOT_168_ng.hex'
p817
sS'path'
p818
S'atmega'
p819
sS'unlock_bits'
p820
S'0x3F'
p821
ssS'upload'
p822
(dp823
S'protocol'
p824
S'arduino'
p825
sS'maximum_size'
p826
S'14336'
p827
sS'speed'
p828
S'19200'
p829
ssS'build'
p830
(dp831
S'core'
p832
S'arduino'
p833
sS'mcu'
p834
S'atmega168'
p835
sS'f_cpu'
p836
S'16000000L'
p837
sS'variant'
p838
S'standard'
p839
ssS'name'
p840
S'Arduino NG or older w/ ATmega168'
p841
saa(lp842
S'atmega8'
p843
a(dp844
S'bootloader'
p845
(dp846
S'high_fuses'
p847
S'0xca'
p848
sS'low_fuses'
p849
S'0xdf'
p850
sS'lock_bits'
p851
S'0x0F'
p852
sS'file'
p853
S'ATmegaBOOT.hex'
p854
sS'path'
p855
S'atmega8'
p856
sS'unlock_bits'
p857
S'0x3F'
p858
ssS'upload'
p859
(dp860
S'protocol'
p861
S'arduino'
p862
sS'maximum_size'
p863
S'7168'
p864
sS'speed'
p865
S'19200'
p866
ssS'build'
p867
(dp868
S'core'
p869
S'arduino'
p870
sS'mcu'
p871
S'atmega8'
p872
sS'f_cpu'
p873
S'16000000L'
p874
sS'variant'
p875
S'standard'
p876
ssS'name'
p877
S'Arduino NG or older w/ ATmega8'
p878
saatp879
Rp880
(dp881
S'default'
p882
S'uno'
p883
sbtp884
a.