(lp0
(S'elfflags'
p1
ccopy_reg
_reconstructor
p2
(cino.utils
SpaceList
p3
c__builtin__
list
p4
(lp5
S'-Os'
p6
aS'-Wl,--gc-sections'
p7
aS'-mmcu=atmega32u4'
p8
atp9
Rp10
tp11
a(S'cc'
p12
S'/usr/bin/avr-gcc'
p13
tp14
a(S'arduino_libraries_dir'
p15
S'/usr/share/arduino/libraries'
p16
tp17
a(S'avrdude'
p18
S'/usr/share/arduino/hardware/tools/avrdude'
p19
tp20
a(S'ar'
p21
S'/usr/bin/avr-ar'
p22
tp23
a(S'names'
p24
(dp25
S'cpp'
p26
S'%s.cpp'
p27
sS'obj'
p28
S'%s.o'
p29
sS'deps'
p30
S'%s.d'
p31
sS'lib'
p32
S'lib%s.a'
p33
stp34
a(S'arduino_lib_version'
p35
g2
(cino.environment
Version
p36
c__builtin__
tuple
p37
(I1
I0
tp38
tp39
Rp40
tp41
a(S'objcopy'
p42
S'/usr/bin/avr-objcopy'
p43
tp44
a(S'board_models'
p45
cino.environment
BoardModels
p46
((lp47
(lp48
S'uno'
p49
a(dp50
S'bootloader'
p51
(dp52
S'extended_fuses'
p53
S'0x05'
p54
sS'high_fuses'
p55
S'0xde'
p56
sS'low_fuses'
p57
S'0xff'
p58
sS'lock_bits'
p59
S'0x0F'
p60
sS'file'
p61
S'optiboot_atmega328.hex'
p62
sS'path'
p63
S'optiboot'
p64
sS'unlock_bits'
p65
S'0x3F'
p66
ssS'build'
p67
(dp68
S'core'
p69
S'arduino'
p70
sS'mcu'
p71
S'atmega328p'
p72
sS'f_cpu'
p73
S'16000000L'
p74
sS'variant'
p75
S'standard'
p76
ssS'name'
p77
S'Arduino Uno'
p78
sS'upload'
p79
(dp80
S'speed'
p81
S'115200'
p82
sS'maximum_size'
p83
S'32256'
p84
sS'protocol'
p85
S'arduino'
p86
ssaa(lp87
S'atmega328'
p88
a(dp89
S'bootloader'
p90
(dp91
S'extended_fuses'
p92
S'0x05'
p93
sS'high_fuses'
p94
S'0xDA'
p95
sS'low_fuses'
p96
S'0xFF'
p97
sS'lock_bits'
p98
S'0x0F'
p99
sS'file'
p100
S'ATmegaBOOT_168_atmega328.hex'
p101
sS'path'
p102
S'atmega'
p103
sS'unlock_bits'
p104
S'0x3F'
p105
ssS'build'
p106
(dp107
S'core'
p108
S'arduino'
p109
sS'mcu'
p110
S'atmega328p'
p111
sS'f_cpu'
p112
S'16000000L'
p113
sS'variant'
p114
S'standard'
p115
ssS'name'
p116
S'Arduino Duemilanove w/ ATmega328'
p117
sS'upload'
p118
(dp119
S'speed'
p120
S'57600'
p121
sS'maximum_size'
p122
S'30720'
p123
sS'protocol'
p124
S'arduino'
p125
ssaa(lp126
S'diecimila'
p127
a(dp128
S'bootloader'
p129
(dp130
S'extended_fuses'
p131
S'0x00'
p132
sS'high_fuses'
p133
S'0xdd'
p134
sS'low_fuses'
p135
S'0xff'
p136
sS'lock_bits'
p137
S'0x0F'
p138
sS'file'
p139
S'ATmegaBOOT_168_diecimila.hex'
p140
sS'path'
p141
S'atmega'
p142
sS'unlock_bits'
p143
S'0x3F'
p144
ssS'build'
p145
(dp146
S'core'
p147
S'arduino'
p148
sS'mcu'
p149
S'atmega168'
p150
sS'f_cpu'
p151
S'16000000L'
p152
sS'variant'
p153
S'standard'
p154
ssS'name'
p155
S'Arduino Diecimila or Duemilanove w/ ATmega168'
p156
sS'upload'
p157
(dp158
S'speed'
p159
S'19200'
p160
sS'maximum_size'
p161
S'14336'
p162
sS'protocol'
p163
S'arduino'
p164
ssaa(lp165
S'nano328'
p166
a(dp167
S'bootloader'
p168
(dp169
S'extended_fuses'
p170
S'0x05'
p171
sS'high_fuses'
p172
S'0xDA'
p173
sS'low_fuses'
p174
S'0xFF'
p175
sS'lock_bits'
p176
S'0x0F'
p177
sS'file'
p178
S'ATmegaBOOT_168_atmega328.hex'
p179
sS'path'
p180
S'atmega'
p181
sS'unlock_bits'
p182
S'0x3F'
p183
ssS'build'
p184
(dp185
S'core'
p186
S'arduino'
p187
sS'mcu'
p188
S'atmega328p'
p189
sS'f_cpu'
p190
S'16000000L'
p191
sS'variant'
p192
S'eightanaloginputs'
p193
ssS'name'
p194
S'Arduino Nano w/ ATmega328'
p195
sS'upload'
p196
(dp197
S'speed'
p198
S'57600'
p199
sS'maximum_size'
p200
S'30720'
p201
sS'protocol'
p202
S'arduino'
p203
ssaa(lp204
S'nano'
p205
a(dp206
S'bootloader'
p207
(dp208
S'extended_fuses'
p209
S'0x00'
p210
sS'high_fuses'
p211
S'0xdd'
p212
sS'low_fuses'
p213
S'0xff'
p214
sS'lock_bits'
p215
S'0x0F'
p216
sS'file'
p217
S'ATmegaBOOT_168_diecimila.hex'
p218
sS'path'
p219
S'atmega'
p220
sS'unlock_bits'
p221
S'0x3F'
p222
ssS'build'
p223
(dp224
S'core'
p225
S'arduino'
p226
sS'mcu'
p227
S'atmega168'
p228
sS'f_cpu'
p229
S'16000000L'
p230
sS'variant'
p231
S'eightanaloginputs'
p232
ssS'name'
p233
S'Arduino Nano w/ ATmega168'
p234
sS'upload'
p235
(dp236
S'speed'
p237
S'19200'
p238
sS'maximum_size'
p239
S'14336'
p240
sS'protocol'
p241
S'arduino'
p242
ssaa(lp243
S'mega2560'
p244
a(dp245
S'bootloader'
p246
(dp247
S'extended_fuses'
p248
S'0xFD'
p249
sS'high_fuses'
p250
S'0xD8'
p251
sS'low_fuses'
p252
S'0xFF'
p253
sS'lock_bits'
p254
S'0x0F'
p255
sS'file'
p256
S'stk500boot_v2_mega2560.hex'
p257
sS'path'
p258
S'stk500v2'
p259
sS'unlock_bits'
p260
S'0x3F'
p261
ssS'build'
p262
(dp263
S'core'
p264
S'arduino'
p265
sS'mcu'
p266
S'atmega2560'
p267
sS'f_cpu'
p268
S'16000000L'
p269
sS'variant'
p270
S'mega'
p271
ssS'name'
p272
S'Arduino Mega 2560 or Mega ADK'
p273
sS'upload'
p274
(dp275
S'speed'
p276
S'115200'
p277
sS'maximum_size'
p278
S'258048'
p279
sS'protocol'
p280
S'stk500v2'
p281
ssaa(lp282
S'mega'
p283
a(dp284
S'bootloader'
p285
(dp286
S'extended_fuses'
p287
S'0xF5'
p288
sS'high_fuses'
p289
S'0xDA'
p290
sS'low_fuses'
p291
S'0xFF'
p292
sS'lock_bits'
p293
S'0x0F'
p294
sS'file'
p295
S'ATmegaBOOT_168_atmega1280.hex'
p296
sS'path'
p297
S'atmega'
p298
sS'unlock_bits'
p299
S'0x3F'
p300
ssS'build'
p301
(dp302
S'core'
p303
S'arduino'
p304
sS'mcu'
p305
S'atmega1280'
p306
sS'f_cpu'
p307
S'16000000L'
p308
sS'variant'
p309
S'mega'
p310
ssS'name'
p311
S'Arduino Mega (ATmega1280)'
p312
sS'upload'
p313
(dp314
S'speed'
p315
S'57600'
p316
sS'maximum_size'
p317
S'126976'
p318
sS'protocol'
p319
S'arduino'
p320
ssaa(lp321
S'leonardo'
p322
a(dp323
S'bootloader'
p324
(dp325
S'extended_fuses'
p326
S'0xcb'
p327
sS'high_fuses'
p328
S'0xd8'
p329
sS'low_fuses'
p330
S'0xff'
p331
sS'lock_bits'
p332
S'0x2F'
p333
sS'file'
p334
S'Caterina-Leonardo.hex'
p335
sS'path'
p336
S'caterina'
p337
sS'unlock_bits'
p338
S'0x3F'
p339
ssS'build'
p340
(dp341
S'core'
p342
S'arduino'
p343
sS'f_cpu'
p344
S'16000000L'
p345
sS'vid'
p346
S'0x2341'
p347
sS'pid'
p348
S'0x8036'
p349
sS'variant'
p350
S'leonardo'
p351
sS'mcu'
p352
S'atmega32u4'
p353
ssS'name'
p354
S'Arduino Leonardo'
p355
sS'upload'
p356
(dp357
S'speed'
p358
S'57600'
p359
sS'maximum_size'
p360
S'28672'
p361
sS'protocol'
p362
S'avr109'
p363
sS'disable_flushing'
p364
S'true'
p365
ssaa(lp366
S'mini328'
p367
a(dp368
S'bootloader'
p369
(dp370
S'extended_fuses'
p371
S'0x05'
p372
sS'high_fuses'
p373
S'0xd8'
p374
sS'low_fuses'
p375
S'0xff'
p376
sS'lock_bits'
p377
S'0x0F'
p378
sS'file'
p379
S'optiboot_atmega328-Mini.hex'
p380
sS'path'
p381
S'optiboot'
p382
sS'unlock_bits'
p383
S'0x3F'
p384
ssS'build'
p385
(dp386
S'core'
p387
S'arduino'
p388
sS'mcu'
p389
S'atmega328p'
p390
sS'f_cpu'
p391
S'16000000L'
p392
sS'variant'
p393
S'eightanaloginputs'
p394
ssS'name'
p395
S'Arduino Mini w/ ATmega328'
p396
sS'upload'
p397
(dp398
S'speed'
p399
S'115200'
p400
sS'maximum_size'
p401
S'28672'
p402
sS'protocol'
p403
S'arduino'
p404
ssaa(lp405
S'mini'
p406
a(dp407
S'bootloader'
p408
(dp409
S'extended_fuses'
p410
S'0x00'
p411
sS'high_fuses'
p412
S'0xdd'
p413
sS'low_fuses'
p414
S'0xff'
p415
sS'lock_bits'
p416
S'0x0F'
p417
sS'file'
p418
S'ATmegaBOOT_168_ng.hex'
p419
sS'path'
p420
S'atmega'
p421
sS'unlock_bits'
p422
S'0x3F'
p423
ssS'build'
p424
(dp425
S'core'
p426
S'arduino'
p427
sS'mcu'
p428
S'atmega168'
p429
sS'f_cpu'
p430
S'16000000L'
p431
sS'variant'
p432
S'eightanaloginputs'
p433
ssS'name'
p434
S'Arduino Mini w/ ATmega168'
p435
sS'upload'
p436
(dp437
S'speed'
p438
S'19200'
p439
sS'maximum_size'
p440
S'14336'
p441
sS'protocol'
p442
S'arduino'
p443
ssaa(lp444
S'ethernet'
p445
a(dp446
S'bootloader'
p447
(dp448
S'extended_fuses'
p449
S'0x05'
p450
sS'high_fuses'
p451
S'0xde'
p452
sS'low_fuses'
p453
S'0xff'
p454
sS'lock_bits'
p455
S'0x0F'
p456
sS'file'
p457
S'optiboot_atmega328.hex'
p458
sS'path'
p459
S'optiboot'
p460
sS'unlock_bits'
p461
S'0x3F'
p462
ssS'build'
p463
(dp464
S'f_cpu'
p465
S'16000000L'
p466
sS'mcu'
p467
S'atmega328p'
p468
sS'variant'
p469
S'standard'
p470
sS'core'
p471
S'arduino'
p472
ssS'name'
p473
S'Arduino Ethernet'
p474
sS'upload'
p475
(dp476
S'speed'
p477
S'115200'
p478
sS'maximum_size'
p479
S'32256'
p480
sS'protocol'
p481
S'arduino'
p482
ssaa(lp483
S'fio'
p484
a(dp485
S'bootloader'
p486
(dp487
S'extended_fuses'
p488
S'0x05'
p489
sS'high_fuses'
p490
S'0xDA'
p491
sS'low_fuses'
p492
S'0xFF'
p493
sS'lock_bits'
p494
S'0x0F'
p495
sS'file'
p496
S'ATmegaBOOT_168_atmega328_pro_8MHz.hex'
p497
sS'path'
p498
S'arduino:atmega'
p499
sS'unlock_bits'
p500
S'0x3F'
p501
ssS'build'
p502
(dp503
S'core'
p504
S'arduino'
p505
sS'mcu'
p506
S'atmega328p'
p507
sS'f_cpu'
p508
S'8000000L'
p509
sS'variant'
p510
S'eightanaloginputs'
p511
ssS'name'
p512
S'Arduino Fio'
p513
sS'upload'
p514
(dp515
S'speed'
p516
S'57600'
p517
sS'maximum_size'
p518
S'30720'
p519
sS'protocol'
p520
S'arduino'
p521
ssaa(lp522
S'bt328'
p523
a(dp524
S'bootloader'
p525
(dp526
S'extended_fuses'
p527
S'0x05'
p528
sS'high_fuses'
p529
S'0xd8'
p530
sS'low_fuses'
p531
S'0xff'
p532
sS'lock_bits'
p533
S'0x0F'
p534
sS'file'
p535
S'ATmegaBOOT_168_atmega328_bt.hex'
p536
sS'path'
p537
S'bt'
p538
sS'unlock_bits'
p539
S'0x3F'
p540
ssS'build'
p541
(dp542
S'core'
p543
S'arduino'
p544
sS'mcu'
p545
S'atmega328p'
p546
sS'f_cpu'
p547
S'16000000L'
p548
sS'variant'
p549
S'eightanaloginputs'
p550
ssS'name'
p551
S'Arduino BT w/ ATmega328'
p552
sS'upload'
p553
(dp554
S'speed'
p555
S'19200'
p556
sS'maximum_size'
p557
S'28672'
p558
sS'protocol'
p559
S'arduino'
p560
sS'disable_flushing'
p561
S'true'
p562
ssaa(lp563
S'bt'
p564
a(dp565
S'bootloader'
p566
(dp567
S'extended_fuses'
p568
S'0x00'
p569
sS'high_fuses'
p570
S'0xdd'
p571
sS'low_fuses'
p572
S'0xff'
p573
sS'lock_bits'
p574
S'0x0F'
p575
sS'file'
p576
S'ATmegaBOOT_168.hex'
p577
sS'path'
p578
S'bt'
p579
sS'unlock_bits'
p580
S'0x3F'
p581
ssS'build'
p582
(dp583
S'core'
p584
S'arduino'
p585
sS'mcu'
p586
S'atmega168'
p587
sS'f_cpu'
p588
S'16000000L'
p589
sS'variant'
p590
S'eightanaloginputs'
p591
ssS'name'
p592
S'Arduino BT w/ ATmega168'
p593
sS'upload'
p594
(dp595
S'speed'
p596
S'19200'
p597
sS'maximum_size'
p598
S'14336'
p599
sS'protocol'
p600
S'arduino'
p601
sS'disable_flushing'
p602
S'true'
p603
ssaa(lp604
S'lilypad328'
p605
a(dp606
S'bootloader'
p607
(dp608
S'extended_fuses'
p609
S'0x05'
p610
sS'high_fuses'
p611
S'0xDA'
p612
sS'low_fuses'
p613
S'0xFF'
p614
sS'lock_bits'
p615
S'0x0F'
p616
sS'file'
p617
S'ATmegaBOOT_168_atmega328_pro_8MHz.hex'
p618
sS'path'
p619
S'atmega'
p620
sS'unlock_bits'
p621
S'0x3F'
p622
ssS'build'
p623
(dp624
S'core'
p625
S'arduino'
p626
sS'mcu'
p627
S'atmega328p'
p628
sS'f_cpu'
p629
S'8000000L'
p630
sS'variant'
p631
S'standard'
p632
ssS'name'
p633
S'LilyPad Arduino w/ ATmega328'
p634
sS'upload'
p635
(dp636
S'speed'
p637
S'57600'
p638
sS'maximum_size'
p639
S'30720'
p640
sS'protocol'
p641
S'arduino'
p642
ssaa(lp643
S'lilypad'
p644
a(dp645
S'bootloader'
p646
(dp647
S'extended_fuses'
p648
S'0x00'
p649
sS'high_fuses'
p650
S'0xdd'
p651
sS'low_fuses'
p652
S'0xe2'
p653
sS'lock_bits'
p654
S'0x0F'
p655
sS'file'
p656
S'LilyPadBOOT_168.hex'
p657
sS'path'
p658
S'lilypad'
p659
sS'unlock_bits'
p660
S'0x3F'
p661
ssS'build'
p662
(dp663
S'core'
p664
S'arduino'
p665
sS'mcu'
p666
S'atmega168'
p667
sS'f_cpu'
p668
S'8000000L'
p669
sS'variant'
p670
S'standard'
p671
ssS'name'
p672
S'LilyPad Arduino w/ ATmega168'
p673
sS'upload'
p674
(dp675
S'speed'
p676
S'19200'
p677
sS'maximum_size'
p678
S'14336'
p679
sS'protocol'
p680
S'arduino'
p681
ssaa(lp682
S'pro5v328'
p683
a(dp684
S'bootloader'
p685
(dp686
S'extended_fuses'
p687
S'0x05'
p688
sS'high_fuses'
p689
S'0xDA'
p690
sS'low_fuses'
p691
S'0xFF'
p692
sS'lock_bits'
p693
S'0x0F'
p694
sS'file'
p695
S'ATmegaBOOT_168_atmega328.hex'
p696
sS'path'
p697
S'atmega'
p698
sS'unlock_bits'
p699
S'0x3F'
p700
ssS'build'
p701
(dp702
S'core'
p703
S'arduino'
p704
sS'mcu'
p705
S'atmega328p'
p706
sS'f_cpu'
p707
S'16000000L'
p708
sS'variant'
p709
S'standard'
p710
ssS'name'
p711
S'Arduino Pro or Pro Mini (5V, 16 MHz) w/ ATmega328'
p712
sS'upload'
p713
(dp714
S'speed'
p715
S'57600'
p716
sS'maximum_size'
p717
S'30720'
p718
sS'protocol'
p719
S'arduino'
p720
ssaa(lp721
S'pro5v'
p722
a(dp723
S'bootloader'
p724
(dp725
S'extended_fuses'
p726
S'0x00'
p727
sS'high_fuses'
p728
S'0xdd'
p729
sS'low_fuses'
p730
S'0xff'
p731
sS'lock_bits'
p732
S'0x0F'
p733
sS'file'
p734
S'ATmegaBOOT_168_diecimila.hex'
p735
sS'path'
p736
S'atmega'
p737
sS'unlock_bits'
p738
S'0x3F'
p739
ssS'build'
p740
(dp741
S'core'
p742
S'arduino'
p743
sS'mcu'
p744
S'atmega168'
p745
sS'f_cpu'
p746
S'16000000L'
p747
sS'variant'
p748
S'standard'
p749
ssS'name'
p750
S'Arduino Pro or Pro Mini (5V, 16 MHz) w/ ATmega168'
p751
sS'upload'
p752
(dp753
S'speed'
p754
S'19200'
p755
sS'maximum_size'
p756
S'14336'
p757
sS'protocol'
p758
S'arduino'
p759
ssaa(lp760
S'pro328'
p761
a(dp762
S'bootloader'
p763
(dp764
S'extended_fuses'
p765
S'0x05'
p766
sS'high_fuses'
p767
S'0xDA'
p768
sS'low_fuses'
p769
S'0xFF'
p770
sS'lock_bits'
p771
S'0x0F'
p772
sS'file'
p773
S'ATmegaBOOT_168_atmega328_pro_8MHz.hex'
p774
sS'path'
p775
S'atmega'
p776
sS'unlock_bits'
p777
S'0x3F'
p778
ssS'build'
p779
(dp780
S'core'
p781
S'arduino'
p782
sS'mcu'
p783
S'atmega328p'
p784
sS'f_cpu'
p785
S'8000000L'
p786
sS'variant'
p787
S'standard'
p788
ssS'name'
p789
S'Arduino Pro or Pro Mini (3.3V, 8 MHz) w/ ATmega328'
p790
sS'upload'
p791
(dp792
S'speed'
p793
S'57600'
p794
sS'maximum_size'
p795
S'30720'
p796
sS'protocol'
p797
S'arduino'
p798
ssaa(lp799
S'pro'
p800
a(dp801
S'bootloader'
p802
(dp803
S'extended_fuses'
p804
S'0x00'
p805
sS'high_fuses'
p806
S'0xdd'
p807
sS'low_fuses'
p808
S'0xc6'
p809
sS'lock_bits'
p810
S'0x0F'
p811
sS'file'
p812
S'ATmegaBOOT_168_pro_8MHz.hex'
p813
sS'path'
p814
S'atmega'
p815
sS'unlock_bits'
p816
S'0x3F'
p817
ssS'build'
p818
(dp819
S'core'
p820
S'arduino'
p821
sS'mcu'
p822
S'atmega168'
p823
sS'f_cpu'
p824
S'8000000L'
p825
sS'variant'
p826
S'standard'
p827
ssS'name'
p828
S'Arduino Pro or Pro Mini (3.3V, 8 MHz) w/ ATmega168'
p829
sS'upload'
p830
(dp831
S'speed'
p832
S'19200'
p833
sS'maximum_size'
p834
S'14336'
p835
sS'protocol'
p836
S'arduino'
p837
ssaa(lp838
S'atmega168'
p839
a(dp840
S'bootloader'
p841
(dp842
S'extended_fuses'
p843
S'0x00'
p844
sS'high_fuses'
p845
S'0xdd'
p846
sS'low_fuses'
p847
S'0xff'
p848
sS'lock_bits'
p849
S'0x0F'
p850
sS'file'
p851
S'ATmegaBOOT_168_ng.hex'
p852
sS'path'
p853
S'atmega'
p854
sS'unlock_bits'
p855
S'0x3F'
p856
ssS'build'
p857
(dp858
S'core'
p859
S'arduino'
p860
sS'mcu'
p861
S'atmega168'
p862
sS'f_cpu'
p863
S'16000000L'
p864
sS'variant'
p865
S'standard'
p866
ssS'name'
p867
S'Arduino NG or older w/ ATmega168'
p868
sS'upload'
p869
(dp870
S'speed'
p871
S'19200'
p872
sS'maximum_size'
p873
S'14336'
p874
sS'protocol'
p875
S'arduino'
p876
ssaa(lp877
S'atmega8'
p878
a(dp879
S'bootloader'
p880
(dp881
S'high_fuses'
p882
S'0xca'
p883
sS'low_fuses'
p884
S'0xdf'
p885
sS'lock_bits'
p886
S'0x0F'
p887
sS'file'
p888
S'ATmegaBOOT.hex'
p889
sS'path'
p890
S'atmega8'
p891
sS'unlock_bits'
p892
S'0x3F'
p893
ssS'build'
p894
(dp895
S'core'
p896
S'arduino'
p897
sS'mcu'
p898
S'atmega8'
p899
sS'f_cpu'
p900
S'16000000L'
p901
sS'variant'
p902
S'standard'
p903
ssS'name'
p904
S'Arduino NG or older w/ ATmega8'
p905
sS'upload'
p906
(dp907
S'speed'
p908
S'19200'
p909
sS'maximum_size'
p910
S'7168'
p911
sS'protocol'
p912
S'arduino'
p913
ssaatp914
Rp915
(dp916
S'default'
p917
S'uno'
p918
sbtp919
a(S'used_libs'
p920
(lp921
S'/usr/share/arduino/hardware/arduino/cores/arduino'
p922
atp923
a(S'build_dir'
p924
S'.build/leonardo'
p925
tp926
a(S'cxx'
p927
S'/usr/bin/avr-g++'
p928
tp929
a(S'cflags'
p930
g2
(g3
g4
(lp931
g8
aS'-ffunction-sections'
p932
aS'-fdata-sections'
p933
aS'-g'
p934
ag6
aS'-w'
p935
aS'-DF_CPU=16000000L'
p936
aS'-DARDUINO=100'
p937
aS'-I/usr/share/arduino/hardware/arduino/cores/arduino'
p938
aS'-DUSB_VID=0x2341'
p939
aS'-DUSB_PID=0x8036'
p940
aS'-I/usr/share/arduino/hardware/arduino/variants/leonardo'
p941
aS'-I/usr/share/arduino/hardware/arduino/cores/arduino'
p942
atp943
Rp944
tp945
a(S'cxxflags'
p946
g2
(g3
g4
(lp947
S'-fno-exceptions'
p948
atp949
Rp950
tp951
a(S'arduino_variants_dir'
p952
S'/usr/share/arduino/hardware/arduino/variants'
p953
tp954
a(S'serial'
p955
S'/usr/bin/picocom'
p956
tp957
a(S'stty'
p958
S'/bin/stty'
p959
tp960
a(S'version.txt'
p961
S'/usr/share/arduino/lib/version.txt'
p962
tp963
a(S'arduino_core_dir'
p964
g922
tp965
a(S'boards.txt'
p966
S'/usr/share/arduino/hardware/arduino/boards.txt'
p967
tp968
a(S'avrdude.conf'
p969
S'/usr/share/arduino/hardware/tools/avrdude.conf'
p970
tp971
a(S'deps'
p972
g2
(g3
g4
(lp973
S'.build/leonardo/src/dependencies.d'
p974
aS'.build/leonardo/arduino/dependencies.d'
p975
atp976
Rp977
tp978
a.