(lp0
(S'elfflags'
p1
ccopy_reg
_reconstructor
p2
(cino.utils
SpaceList
p3
c__builtin__
list
p4
(lp5
S'-Os'
p6
aS'-Wl,--gc-sections'
p7
aS'-mmcu=atmega32u4'
p8
atp9
Rp10
tp11
a(S'cc'
p12
S'/usr/bin/avr-gcc'
p13
tp14
a(S'build_dir'
p15
S'.build/leonardo'
p16
tp17
a(S'avrdude'
p18
S'/usr/share/arduino/hardware/tools/avrdude'
p19
tp20
a(S'ar'
p21
S'/usr/bin/avr-ar'
p22
tp23
a(S'names'
p24
(dp25
S'cpp'
p26
S'%s.cpp'
p27
sS'obj'
p28
S'%s.o'
p29
sS'deps'
p30
S'%s.d'
p31
sS'lib'
p32
S'lib%s.a'
p33
stp34
a(S'arduino_lib_version'
p35
g2
(cino.environment
Version
p36
c__builtin__
tuple
p37
(I1
I0
tp38
tp39
Rp40
tp41
a(S'objcopy'
p42
S'/usr/bin/avr-objcopy'
p43
tp44
a(S'board_models'
p45
cino.environment
BoardModels
p46
((lp47
(lp48
S'uno'
p49
a(dp50
S'bootloader'
p51
(dp52
S'extended_fuses'
p53
S'0x05'
p54
sS'high_fuses'
p55
S'0xde'
p56
sS'low_fuses'
p57
S'0xff'
p58
sS'lock_bits'
p59
S'0x0F'
p60
sS'file'
p61
S'optiboot_atmega328.hex'
p62
sS'path'
p63
S'optiboot'
p64
sS'unlock_bits'
p65
S'0x3F'
p66
ssS'upload'
p67
(dp68
S'protocol'
p69
S'arduino'
p70
sS'maximum_size'
p71
S'32256'
p72
sS'speed'
p73
S'115200'
p74
ssS'build'
p75
(dp76
S'core'
p77
S'arduino'
p78
sS'mcu'
p79
S'atmega328p'
p80
sS'f_cpu'
p81
S'16000000L'
p82
sS'variant'
p83
S'standard'
p84
ssS'name'
p85
S'Arduino Uno'
p86
saa(lp87
S'atmega328'
p88
a(dp89
S'bootloader'
p90
(dp91
S'extended_fuses'
p92
S'0x05'
p93
sS'high_fuses'
p94
S'0xDA'
p95
sS'low_fuses'
p96
S'0xFF'
p97
sS'lock_bits'
p98
S'0x0F'
p99
sS'file'
p100
S'ATmegaBOOT_168_atmega328.hex'
p101
sS'path'
p102
S'atmega'
p103
sS'unlock_bits'
p104
S'0x3F'
p105
ssS'upload'
p106
(dp107
S'protocol'
p108
S'arduino'
p109
sS'maximum_size'
p110
S'30720'
p111
sS'speed'
p112
S'57600'
p113
ssS'build'
p114
(dp115
S'core'
p116
S'arduino'
p117
sS'mcu'
p118
S'atmega328p'
p119
sS'f_cpu'
p120
S'16000000L'
p121
sS'variant'
p122
S'standard'
p123
ssS'name'
p124
S'Arduino Duemilanove w/ ATmega328'
p125
saa(lp126
S'diecimila'
p127
a(dp128
S'bootloader'
p129
(dp130
S'extended_fuses'
p131
S'0x00'
p132
sS'high_fuses'
p133
S'0xdd'
p134
sS'low_fuses'
p135
S'0xff'
p136
sS'lock_bits'
p137
S'0x0F'
p138
sS'file'
p139
S'ATmegaBOOT_168_diecimila.hex'
p140
sS'path'
p141
S'atmega'
p142
sS'unlock_bits'
p143
S'0x3F'
p144
ssS'upload'
p145
(dp146
S'protocol'
p147
S'arduino'
p148
sS'maximum_size'
p149
S'14336'
p150
sS'speed'
p151
S'19200'
p152
ssS'build'
p153
(dp154
S'core'
p155
S'arduino'
p156
sS'mcu'
p157
S'atmega168'
p158
sS'f_cpu'
p159
S'16000000L'
p160
sS'variant'
p161
S'standard'
p162
ssS'name'
p163
S'Arduino Diecimila or Duemilanove w/ ATmega168'
p164
saa(lp165
S'nano328'
p166
a(dp167
S'bootloader'
p168
(dp169
S'extended_fuses'
p170
S'0x05'
p171
sS'high_fuses'
p172
S'0xDA'
p173
sS'low_fuses'
p174
S'0xFF'
p175
sS'lock_bits'
p176
S'0x0F'
p177
sS'file'
p178
S'ATmegaBOOT_168_atmega328.hex'
p179
sS'path'
p180
S'atmega'
p181
sS'unlock_bits'
p182
S'0x3F'
p183
ssS'upload'
p184
(dp185
S'protocol'
p186
S'arduino'
p187
sS'maximum_size'
p188
S'30720'
p189
sS'speed'
p190
S'57600'
p191
ssS'build'
p192
(dp193
S'core'
p194
S'arduino'
p195
sS'mcu'
p196
S'atmega328p'
p197
sS'f_cpu'
p198
S'16000000L'
p199
sS'variant'
p200
S'eightanaloginputs'
p201
ssS'name'
p202
S'Arduino Nano w/ ATmega328'
p203
saa(lp204
S'nano'
p205
a(dp206
S'bootloader'
p207
(dp208
S'extended_fuses'
p209
S'0x00'
p210
sS'high_fuses'
p211
S'0xdd'
p212
sS'low_fuses'
p213
S'0xff'
p214
sS'lock_bits'
p215
S'0x0F'
p216
sS'file'
p217
S'ATmegaBOOT_168_diecimila.hex'
p218
sS'path'
p219
S'atmega'
p220
sS'unlock_bits'
p221
S'0x3F'
p222
ssS'upload'
p223
(dp224
S'protocol'
p225
S'arduino'
p226
sS'maximum_size'
p227
S'14336'
p228
sS'speed'
p229
S'19200'
p230
ssS'build'
p231
(dp232
S'core'
p233
S'arduino'
p234
sS'mcu'
p235
S'atmega168'
p236
sS'f_cpu'
p237
S'16000000L'
p238
sS'variant'
p239
S'eightanaloginputs'
p240
ssS'name'
p241
S'Arduino Nano w/ ATmega168'
p242
saa(lp243
S'mega2560'
p244
a(dp245
S'bootloader'
p246
(dp247
S'extended_fuses'
p248
S'0xFD'
p249
sS'high_fuses'
p250
S'0xD8'
p251
sS'low_fuses'
p252
S'0xFF'
p253
sS'lock_bits'
p254
S'0x0F'
p255
sS'file'
p256
S'stk500boot_v2_mega2560.hex'
p257
sS'path'
p258
S'stk500v2'
p259
sS'unlock_bits'
p260
S'0x3F'
p261
ssS'upload'
p262
(dp263
S'protocol'
p264
S'stk500v2'
p265
sS'maximum_size'
p266
S'258048'
p267
sS'speed'
p268
S'115200'
p269
ssS'build'
p270
(dp271
S'core'
p272
S'arduino'
p273
sS'mcu'
p274
S'atmega2560'
p275
sS'f_cpu'
p276
S'16000000L'
p277
sS'variant'
p278
S'mega'
p279
ssS'name'
p280
S'Arduino Mega 2560 or Mega ADK'
p281
saa(lp282
S'mega'
p283
a(dp284
S'bootloader'
p285
(dp286
S'extended_fuses'
p287
S'0xF5'
p288
sS'high_fuses'
p289
S'0xDA'
p290
sS'low_fuses'
p291
S'0xFF'
p292
sS'lock_bits'
p293
S'0x0F'
p294
sS'file'
p295
S'ATmegaBOOT_168_atmega1280.hex'
p296
sS'path'
p297
S'atmega'
p298
sS'unlock_bits'
p299
S'0x3F'
p300
ssS'upload'
p301
(dp302
S'protocol'
p303
S'arduino'
p304
sS'maximum_size'
p305
S'126976'
p306
sS'speed'
p307
S'57600'
p308
ssS'build'
p309
(dp310
S'core'
p311
S'arduino'
p312
sS'mcu'
p313
S'atmega1280'
p314
sS'f_cpu'
p315
S'16000000L'
p316
sS'variant'
p317
S'mega'
p318
ssS'name'
p319
S'Arduino Mega (ATmega1280)'
p320
saa(lp321
S'leonardo'
p322
a(dp323
S'bootloader'
p324
(dp325
S'extended_fuses'
p326
S'0xcb'
p327
sS'high_fuses'
p328
S'0xd8'
p329
sS'low_fuses'
p330
S'0xff'
p331
sS'lock_bits'
p332
S'0x2F'
p333
sS'file'
p334
S'Caterina-Leonardo.hex'
p335
sS'path'
p336
S'caterina'
p337
sS'unlock_bits'
p338
S'0x3F'
p339
ssS'upload'
p340
(dp341
S'protocol'
p342
S'avr109'
p343
sS'maximum_size'
p344
S'28672'
p345
sS'speed'
p346
S'57600'
p347
sS'disable_flushing'
p348
S'true'
p349
ssS'build'
p350
(dp351
S'core'
p352
S'arduino'
p353
sS'f_cpu'
p354
S'16000000L'
p355
sS'vid'
p356
S'0x2341'
p357
sS'pid'
p358
S'0x8036'
p359
sS'variant'
p360
S'leonardo'
p361
sS'mcu'
p362
S'atmega32u4'
p363
ssS'name'
p364
S'Arduino Leonardo'
p365
saa(lp366
S'mini328'
p367
a(dp368
S'bootloader'
p369
(dp370
S'extended_fuses'
p371
S'0x05'
p372
sS'high_fuses'
p373
S'0xd8'
p374
sS'low_fuses'
p375
S'0xff'
p376
sS'lock_bits'
p377
S'0x0F'
p378
sS'file'
p379
S'optiboot_atmega328-Mini.hex'
p380
sS'path'
p381
S'optiboot'
p382
sS'unlock_bits'
p383
S'0x3F'
p384
ssS'upload'
p385
(dp386
S'protocol'
p387
S'arduino'
p388
sS'maximum_size'
p389
S'28672'
p390
sS'speed'
p391
S'115200'
p392
ssS'build'
p393
(dp394
S'core'
p395
S'arduino'
p396
sS'mcu'
p397
S'atmega328p'
p398
sS'f_cpu'
p399
S'16000000L'
p400
sS'variant'
p401
S'eightanaloginputs'
p402
ssS'name'
p403
S'Arduino Mini w/ ATmega328'
p404
saa(lp405
S'mini'
p406
a(dp407
S'bootloader'
p408
(dp409
S'extended_fuses'
p410
S'0x00'
p411
sS'high_fuses'
p412
S'0xdd'
p413
sS'low_fuses'
p414
S'0xff'
p415
sS'lock_bits'
p416
S'0x0F'
p417
sS'file'
p418
S'ATmegaBOOT_168_ng.hex'
p419
sS'path'
p420
S'atmega'
p421
sS'unlock_bits'
p422
S'0x3F'
p423
ssS'upload'
p424
(dp425
S'protocol'
p426
S'arduino'
p427
sS'maximum_size'
p428
S'14336'
p429
sS'speed'
p430
S'19200'
p431
ssS'build'
p432
(dp433
S'core'
p434
S'arduino'
p435
sS'mcu'
p436
S'atmega168'
p437
sS'f_cpu'
p438
S'16000000L'
p439
sS'variant'
p440
S'eightanaloginputs'
p441
ssS'name'
p442
S'Arduino Mini w/ ATmega168'
p443
saa(lp444
S'ethernet'
p445
a(dp446
S'bootloader'
p447
(dp448
S'extended_fuses'
p449
S'0x05'
p450
sS'high_fuses'
p451
S'0xde'
p452
sS'low_fuses'
p453
S'0xff'
p454
sS'lock_bits'
p455
S'0x0F'
p456
sS'file'
p457
S'optiboot_atmega328.hex'
p458
sS'path'
p459
S'optiboot'
p460
sS'unlock_bits'
p461
S'0x3F'
p462
ssS'upload'
p463
(dp464
S'protocol'
p465
S'arduino'
p466
sS'maximum_size'
p467
S'32256'
p468
sS'speed'
p469
S'115200'
p470
ssS'build'
p471
(dp472
S'variant'
p473
S'standard'
p474
sS'mcu'
p475
S'atmega328p'
p476
sS'f_cpu'
p477
S'16000000L'
p478
sS'core'
p479
S'arduino'
p480
ssS'name'
p481
S'Arduino Ethernet'
p482
saa(lp483
S'fio'
p484
a(dp485
S'bootloader'
p486
(dp487
S'extended_fuses'
p488
S'0x05'
p489
sS'high_fuses'
p490
S'0xDA'
p491
sS'low_fuses'
p492
S'0xFF'
p493
sS'lock_bits'
p494
S'0x0F'
p495
sS'file'
p496
S'ATmegaBOOT_168_atmega328_pro_8MHz.hex'
p497
sS'path'
p498
S'arduino:atmega'
p499
sS'unlock_bits'
p500
S'0x3F'
p501
ssS'upload'
p502
(dp503
S'protocol'
p504
S'arduino'
p505
sS'maximum_size'
p506
S'30720'
p507
sS'speed'
p508
S'57600'
p509
ssS'build'
p510
(dp511
S'core'
p512
S'arduino'
p513
sS'mcu'
p514
S'atmega328p'
p515
sS'f_cpu'
p516
S'8000000L'
p517
sS'variant'
p518
S'eightanaloginputs'
p519
ssS'name'
p520
S'Arduino Fio'
p521
saa(lp522
S'bt328'
p523
a(dp524
S'bootloader'
p525
(dp526
S'extended_fuses'
p527
S'0x05'
p528
sS'high_fuses'
p529
S'0xd8'
p530
sS'low_fuses'
p531
S'0xff'
p532
sS'lock_bits'
p533
S'0x0F'
p534
sS'file'
p535
S'ATmegaBOOT_168_atmega328_bt.hex'
p536
sS'path'
p537
S'bt'
p538
sS'unlock_bits'
p539
S'0x3F'
p540
ssS'upload'
p541
(dp542
S'protocol'
p543
S'arduino'
p544
sS'maximum_size'
p545
S'28672'
p546
sS'speed'
p547
S'19200'
p548
sS'disable_flushing'
p549
S'true'
p550
ssS'build'
p551
(dp552
S'core'
p553
S'arduino'
p554
sS'mcu'
p555
S'atmega328p'
p556
sS'f_cpu'
p557
S'16000000L'
p558
sS'variant'
p559
S'eightanaloginputs'
p560
ssS'name'
p561
S'Arduino BT w/ ATmega328'
p562
saa(lp563
S'bt'
p564
a(dp565
S'bootloader'
p566
(dp567
S'extended_fuses'
p568
S'0x00'
p569
sS'high_fuses'
p570
S'0xdd'
p571
sS'low_fuses'
p572
S'0xff'
p573
sS'lock_bits'
p574
S'0x0F'
p575
sS'file'
p576
S'ATmegaBOOT_168.hex'
p577
sS'path'
p578
S'bt'
p579
sS'unlock_bits'
p580
S'0x3F'
p581
ssS'upload'
p582
(dp583
S'protocol'
p584
S'arduino'
p585
sS'maximum_size'
p586
S'14336'
p587
sS'speed'
p588
S'19200'
p589
sS'disable_flushing'
p590
S'true'
p591
ssS'build'
p592
(dp593
S'core'
p594
S'arduino'
p595
sS'mcu'
p596
S'atmega168'
p597
sS'f_cpu'
p598
S'16000000L'
p599
sS'variant'
p600
S'eightanaloginputs'
p601
ssS'name'
p602
S'Arduino BT w/ ATmega168'
p603
saa(lp604
S'lilypad328'
p605
a(dp606
S'bootloader'
p607
(dp608
S'extended_fuses'
p609
S'0x05'
p610
sS'high_fuses'
p611
S'0xDA'
p612
sS'low_fuses'
p613
S'0xFF'
p614
sS'lock_bits'
p615
S'0x0F'
p616
sS'file'
p617
S'ATmegaBOOT_168_atmega328_pro_8MHz.hex'
p618
sS'path'
p619
S'atmega'
p620
sS'unlock_bits'
p621
S'0x3F'
p622
ssS'upload'
p623
(dp624
S'protocol'
p625
S'arduino'
p626
sS'maximum_size'
p627
S'30720'
p628
sS'speed'
p629
S'57600'
p630
ssS'build'
p631
(dp632
S'core'
p633
S'arduino'
p634
sS'mcu'
p635
S'atmega328p'
p636
sS'f_cpu'
p637
S'8000000L'
p638
sS'variant'
p639
S'standard'
p640
ssS'name'
p641
S'LilyPad Arduino w/ ATmega328'
p642
saa(lp643
S'lilypad'
p644
a(dp645
S'bootloader'
p646
(dp647
S'extended_fuses'
p648
S'0x00'
p649
sS'high_fuses'
p650
S'0xdd'
p651
sS'low_fuses'
p652
S'0xe2'
p653
sS'lock_bits'
p654
S'0x0F'
p655
sS'file'
p656
S'LilyPadBOOT_168.hex'
p657
sS'path'
p658
S'lilypad'
p659
sS'unlock_bits'
p660
S'0x3F'
p661
ssS'upload'
p662
(dp663
S'protocol'
p664
S'arduino'
p665
sS'maximum_size'
p666
S'14336'
p667
sS'speed'
p668
S'19200'
p669
ssS'build'
p670
(dp671
S'core'
p672
S'arduino'
p673
sS'mcu'
p674
S'atmega168'
p675
sS'f_cpu'
p676
S'8000000L'
p677
sS'variant'
p678
S'standard'
p679
ssS'name'
p680
S'LilyPad Arduino w/ ATmega168'
p681
saa(lp682
S'pro5v328'
p683
a(dp684
S'bootloader'
p685
(dp686
S'extended_fuses'
p687
S'0x05'
p688
sS'high_fuses'
p689
S'0xDA'
p690
sS'low_fuses'
p691
S'0xFF'
p692
sS'lock_bits'
p693
S'0x0F'
p694
sS'file'
p695
S'ATmegaBOOT_168_atmega328.hex'
p696
sS'path'
p697
S'atmega'
p698
sS'unlock_bits'
p699
S'0x3F'
p700
ssS'upload'
p701
(dp702
S'protocol'
p703
S'arduino'
p704
sS'maximum_size'
p705
S'30720'
p706
sS'speed'
p707
S'57600'
p708
ssS'build'
p709
(dp710
S'core'
p711
S'arduino'
p712
sS'mcu'
p713
S'atmega328p'
p714
sS'f_cpu'
p715
S'16000000L'
p716
sS'variant'
p717
S'standard'
p718
ssS'name'
p719
S'Arduino Pro or Pro Mini (5V, 16 MHz) w/ ATmega328'
p720
saa(lp721
S'pro5v'
p722
a(dp723
S'bootloader'
p724
(dp725
S'extended_fuses'
p726
S'0x00'
p727
sS'high_fuses'
p728
S'0xdd'
p729
sS'low_fuses'
p730
S'0xff'
p731
sS'lock_bits'
p732
S'0x0F'
p733
sS'file'
p734
S'ATmegaBOOT_168_diecimila.hex'
p735
sS'path'
p736
S'atmega'
p737
sS'unlock_bits'
p738
S'0x3F'
p739
ssS'upload'
p740
(dp741
S'protocol'
p742
S'arduino'
p743
sS'maximum_size'
p744
S'14336'
p745
sS'speed'
p746
S'19200'
p747
ssS'build'
p748
(dp749
S'core'
p750
S'arduino'
p751
sS'mcu'
p752
S'atmega168'
p753
sS'f_cpu'
p754
S'16000000L'
p755
sS'variant'
p756
S'standard'
p757
ssS'name'
p758
S'Arduino Pro or Pro Mini (5V, 16 MHz) w/ ATmega168'
p759
saa(lp760
S'pro328'
p761
a(dp762
S'bootloader'
p763
(dp764
S'extended_fuses'
p765
S'0x05'
p766
sS'high_fuses'
p767
S'0xDA'
p768
sS'low_fuses'
p769
S'0xFF'
p770
sS'lock_bits'
p771
S'0x0F'
p772
sS'file'
p773
S'ATmegaBOOT_168_atmega328_pro_8MHz.hex'
p774
sS'path'
p775
S'atmega'
p776
sS'unlock_bits'
p777
S'0x3F'
p778
ssS'upload'
p779
(dp780
S'protocol'
p781
S'arduino'
p782
sS'maximum_size'
p783
S'30720'
p784
sS'speed'
p785
S'57600'
p786
ssS'build'
p787
(dp788
S'core'
p789
S'arduino'
p790
sS'mcu'
p791
S'atmega328p'
p792
sS'f_cpu'
p793
S'8000000L'
p794
sS'variant'
p795
S'standard'
p796
ssS'name'
p797
S'Arduino Pro or Pro Mini (3.3V, 8 MHz) w/ ATmega328'
p798
saa(lp799
S'pro'
p800
a(dp801
S'bootloader'
p802
(dp803
S'extended_fuses'
p804
S'0x00'
p805
sS'high_fuses'
p806
S'0xdd'
p807
sS'low_fuses'
p808
S'0xc6'
p809
sS'lock_bits'
p810
S'0x0F'
p811
sS'file'
p812
S'ATmegaBOOT_168_pro_8MHz.hex'
p813
sS'path'
p814
S'atmega'
p815
sS'unlock_bits'
p816
S'0x3F'
p817
ssS'upload'
p818
(dp819
S'protocol'
p820
S'arduino'
p821
sS'maximum_size'
p822
S'14336'
p823
sS'speed'
p824
S'19200'
p825
ssS'build'
p826
(dp827
S'core'
p828
S'arduino'
p829
sS'mcu'
p830
S'atmega168'
p831
sS'f_cpu'
p832
S'8000000L'
p833
sS'variant'
p834
S'standard'
p835
ssS'name'
p836
S'Arduino Pro or Pro Mini (3.3V, 8 MHz) w/ ATmega168'
p837
saa(lp838
S'atmega168'
p839
a(dp840
S'bootloader'
p841
(dp842
S'extended_fuses'
p843
S'0x00'
p844
sS'high_fuses'
p845
S'0xdd'
p846
sS'low_fuses'
p847
S'0xff'
p848
sS'lock_bits'
p849
S'0x0F'
p850
sS'file'
p851
S'ATmegaBOOT_168_ng.hex'
p852
sS'path'
p853
S'atmega'
p854
sS'unlock_bits'
p855
S'0x3F'
p856
ssS'upload'
p857
(dp858
S'protocol'
p859
S'arduino'
p860
sS'maximum_size'
p861
S'14336'
p862
sS'speed'
p863
S'19200'
p864
ssS'build'
p865
(dp866
S'core'
p867
S'arduino'
p868
sS'mcu'
p869
S'atmega168'
p870
sS'f_cpu'
p871
S'16000000L'
p872
sS'variant'
p873
S'standard'
p874
ssS'name'
p875
S'Arduino NG or older w/ ATmega168'
p876
saa(lp877
S'atmega8'
p878
a(dp879
S'bootloader'
p880
(dp881
S'high_fuses'
p882
S'0xca'
p883
sS'low_fuses'
p884
S'0xdf'
p885
sS'lock_bits'
p886
S'0x0F'
p887
sS'file'
p888
S'ATmegaBOOT.hex'
p889
sS'path'
p890
S'atmega8'
p891
sS'unlock_bits'
p892
S'0x3F'
p893
ssS'upload'
p894
(dp895
S'protocol'
p896
S'arduino'
p897
sS'maximum_size'
p898
S'7168'
p899
sS'speed'
p900
S'19200'
p901
ssS'build'
p902
(dp903
S'core'
p904
S'arduino'
p905
sS'mcu'
p906
S'atmega8'
p907
sS'f_cpu'
p908
S'16000000L'
p909
sS'variant'
p910
S'standard'
p911
ssS'name'
p912
S'Arduino NG or older w/ ATmega8'
p913
saatp914
Rp915
(dp916
S'default'
p917
S'uno'
p918
sbtp919
a(S'used_libs'
p920
(lp921
S'/usr/share/arduino/hardware/arduino/cores/arduino'
p922
atp923
a(S'arduino_libraries_dir'
p924
S'/usr/share/arduino/libraries'
p925
tp926
a(S'cxx'
p927
S'/usr/bin/avr-g++'
p928
tp929
a(S'cflags'
p930
g2
(g3
g4
(lp931
g8
aS'-ffunction-sections'
p932
aS'-fdata-sections'
p933
aS'-g'
p934
ag6
aS'-w'
p935
aS'-DF_CPU=16000000L'
p936
aS'-DARDUINO=100'
p937
aS'-I/usr/share/arduino/hardware/arduino/cores/arduino'
p938
aS'-DUSB_VID=0x2341'
p939
aS'-DUSB_PID=0x8036'
p940
aS'-I/usr/share/arduino/hardware/arduino/variants/leonardo'
p941
aS'-I/usr/share/arduino/hardware/arduino/cores/arduino'
p942
atp943
Rp944
tp945
a(S'cxxflags'
p946
g2
(g3
g4
(lp947
S'-fno-exceptions'
p948
atp949
Rp950
tp951
a(S'arduino_variants_dir'
p952
S'/usr/share/arduino/hardware/arduino/variants'
p953
tp954
a(S'serial'
p955
S'/usr/bin/picocom'
p956
tp957
a(S'stty'
p958
S'/bin/stty'
p959
tp960
a(S'version.txt'
p961
S'/usr/share/arduino/lib/version.txt'
p962
tp963
a(S'arduino_core_dir'
p964
g922
tp965
a(S'boards.txt'
p966
S'/usr/share/arduino/hardware/arduino/boards.txt'
p967
tp968
a(S'avrdude.conf'
p969
S'/usr/share/arduino/hardware/tools/avrdude.conf'
p970
tp971
a(S'deps'
p972
g2
(g3
g4
(lp973
S'.build/leonardo/src/dependencies.d'
p974
aS'.build/leonardo/arduino/dependencies.d'
p975
atp976
Rp977
tp978
a.