(lp0
(S'elfflags'
p1
ccopy_reg
_reconstructor
p2
(cino.utils
SpaceList
p3
c__builtin__
list
p4
(lp5
S'-Os'
p6
aS'-Wl,--gc-sections'
p7
aS'-mmcu=atmega32u4'
p8
atp9
Rp10
tp11
a(S'cxx'
p12
S'/usr/bin/avr-g++'
p13
tp14
a(S'build_dir'
p15
S'.build/leonardo'
p16
tp17
a(S'avrdude'
p18
S'/usr/share/arduino/hardware/tools/avrdude'
p19
tp20
a(S'ar'
p21
S'/usr/bin/avr-ar'
p22
tp23
a(S'names'
p24
(dp25
S'cpp'
p26
S'%s.cpp'
p27
sS'obj'
p28
S'%s.o'
p29
sS'deps'
p30
S'%s.d'
p31
sS'lib'
p32
S'lib%s.a'
p33
stp34
a(S'arduino_lib_version'
p35
g2
(cino.environment
Version
p36
c__builtin__
tuple
p37
(I1
I0
tp38
tp39
Rp40
tp41
a(S'objcopy'
p42
S'/usr/bin/avr-objcopy'
p43
tp44
a(S'board_models'
p45
cino.environment
BoardModels
p46
((lp47
(lp48
S'uno'
p49
a(dp50
S'build'
p51
(dp52
S'core'
p53
S'arduino'
p54
sS'mcu'
p55
S'atmega328p'
p56
sS'f_cpu'
p57
S'16000000L'
p58
sS'variant'
p59
S'standard'
p60
ssS'bootloader'
p61
(dp62
S'extended_fuses'
p63
S'0x05'
p64
sS'high_fuses'
p65
S'0xde'
p66
sS'low_fuses'
p67
S'0xff'
p68
sS'lock_bits'
p69
S'0x0F'
p70
sS'file'
p71
S'optiboot_atmega328.hex'
p72
sS'path'
p73
S'optiboot'
p74
sS'unlock_bits'
p75
S'0x3F'
p76
ssS'upload'
p77
(dp78
S'protocol'
p79
S'arduino'
p80
sS'maximum_size'
p81
S'32256'
p82
sS'speed'
p83
S'115200'
p84
ssS'name'
p85
S'Arduino Uno'
p86
saa(lp87
S'atmega328'
p88
a(dp89
S'build'
p90
(dp91
S'core'
p92
S'arduino'
p93
sS'mcu'
p94
S'atmega328p'
p95
sS'f_cpu'
p96
S'16000000L'
p97
sS'variant'
p98
S'standard'
p99
ssS'bootloader'
p100
(dp101
S'extended_fuses'
p102
S'0x05'
p103
sS'high_fuses'
p104
S'0xDA'
p105
sS'low_fuses'
p106
S'0xFF'
p107
sS'lock_bits'
p108
S'0x0F'
p109
sS'file'
p110
S'ATmegaBOOT_168_atmega328.hex'
p111
sS'path'
p112
S'atmega'
p113
sS'unlock_bits'
p114
S'0x3F'
p115
ssS'upload'
p116
(dp117
S'protocol'
p118
S'arduino'
p119
sS'maximum_size'
p120
S'30720'
p121
sS'speed'
p122
S'57600'
p123
ssS'name'
p124
S'Arduino Duemilanove w/ ATmega328'
p125
saa(lp126
S'diecimila'
p127
a(dp128
S'build'
p129
(dp130
S'core'
p131
S'arduino'
p132
sS'mcu'
p133
S'atmega168'
p134
sS'f_cpu'
p135
S'16000000L'
p136
sS'variant'
p137
S'standard'
p138
ssS'bootloader'
p139
(dp140
S'extended_fuses'
p141
S'0x00'
p142
sS'high_fuses'
p143
S'0xdd'
p144
sS'low_fuses'
p145
S'0xff'
p146
sS'lock_bits'
p147
S'0x0F'
p148
sS'file'
p149
S'ATmegaBOOT_168_diecimila.hex'
p150
sS'path'
p151
S'atmega'
p152
sS'unlock_bits'
p153
S'0x3F'
p154
ssS'upload'
p155
(dp156
S'protocol'
p157
S'arduino'
p158
sS'maximum_size'
p159
S'14336'
p160
sS'speed'
p161
S'19200'
p162
ssS'name'
p163
S'Arduino Diecimila or Duemilanove w/ ATmega168'
p164
saa(lp165
S'nano328'
p166
a(dp167
S'build'
p168
(dp169
S'core'
p170
S'arduino'
p171
sS'mcu'
p172
S'atmega328p'
p173
sS'f_cpu'
p174
S'16000000L'
p175
sS'variant'
p176
S'eightanaloginputs'
p177
ssS'bootloader'
p178
(dp179
S'extended_fuses'
p180
S'0x05'
p181
sS'high_fuses'
p182
S'0xDA'
p183
sS'low_fuses'
p184
S'0xFF'
p185
sS'lock_bits'
p186
S'0x0F'
p187
sS'file'
p188
S'ATmegaBOOT_168_atmega328.hex'
p189
sS'path'
p190
S'atmega'
p191
sS'unlock_bits'
p192
S'0x3F'
p193
ssS'upload'
p194
(dp195
S'protocol'
p196
S'arduino'
p197
sS'maximum_size'
p198
S'30720'
p199
sS'speed'
p200
S'57600'
p201
ssS'name'
p202
S'Arduino Nano w/ ATmega328'
p203
saa(lp204
S'nano'
p205
a(dp206
S'build'
p207
(dp208
S'core'
p209
S'arduino'
p210
sS'mcu'
p211
S'atmega168'
p212
sS'f_cpu'
p213
S'16000000L'
p214
sS'variant'
p215
S'eightanaloginputs'
p216
ssS'bootloader'
p217
(dp218
S'extended_fuses'
p219
S'0x00'
p220
sS'high_fuses'
p221
S'0xdd'
p222
sS'low_fuses'
p223
S'0xff'
p224
sS'lock_bits'
p225
S'0x0F'
p226
sS'file'
p227
S'ATmegaBOOT_168_diecimila.hex'
p228
sS'path'
p229
S'atmega'
p230
sS'unlock_bits'
p231
S'0x3F'
p232
ssS'upload'
p233
(dp234
S'protocol'
p235
S'arduino'
p236
sS'maximum_size'
p237
S'14336'
p238
sS'speed'
p239
S'19200'
p240
ssS'name'
p241
S'Arduino Nano w/ ATmega168'
p242
saa(lp243
S'mega2560'
p244
a(dp245
S'build'
p246
(dp247
S'core'
p248
S'arduino'
p249
sS'mcu'
p250
S'atmega2560'
p251
sS'f_cpu'
p252
S'16000000L'
p253
sS'variant'
p254
S'mega'
p255
ssS'bootloader'
p256
(dp257
S'extended_fuses'
p258
S'0xFD'
p259
sS'high_fuses'
p260
S'0xD8'
p261
sS'low_fuses'
p262
S'0xFF'
p263
sS'lock_bits'
p264
S'0x0F'
p265
sS'file'
p266
S'stk500boot_v2_mega2560.hex'
p267
sS'path'
p268
S'stk500v2'
p269
sS'unlock_bits'
p270
S'0x3F'
p271
ssS'upload'
p272
(dp273
S'protocol'
p274
S'stk500v2'
p275
sS'maximum_size'
p276
S'258048'
p277
sS'speed'
p278
S'115200'
p279
ssS'name'
p280
S'Arduino Mega 2560 or Mega ADK'
p281
saa(lp282
S'mega'
p283
a(dp284
S'build'
p285
(dp286
S'core'
p287
S'arduino'
p288
sS'mcu'
p289
S'atmega1280'
p290
sS'f_cpu'
p291
S'16000000L'
p292
sS'variant'
p293
S'mega'
p294
ssS'bootloader'
p295
(dp296
S'extended_fuses'
p297
S'0xF5'
p298
sS'high_fuses'
p299
S'0xDA'
p300
sS'low_fuses'
p301
S'0xFF'
p302
sS'lock_bits'
p303
S'0x0F'
p304
sS'file'
p305
S'ATmegaBOOT_168_atmega1280.hex'
p306
sS'path'
p307
S'atmega'
p308
sS'unlock_bits'
p309
S'0x3F'
p310
ssS'upload'
p311
(dp312
S'protocol'
p313
S'arduino'
p314
sS'maximum_size'
p315
S'126976'
p316
sS'speed'
p317
S'57600'
p318
ssS'name'
p319
S'Arduino Mega (ATmega1280)'
p320
saa(lp321
S'leonardo'
p322
a(dp323
S'build'
p324
(dp325
S'core'
p326
S'arduino'
p327
sS'f_cpu'
p328
S'16000000L'
p329
sS'vid'
p330
S'0x2341'
p331
sS'pid'
p332
S'0x8036'
p333
sS'variant'
p334
S'leonardo'
p335
sS'mcu'
p336
S'atmega32u4'
p337
ssS'bootloader'
p338
(dp339
S'extended_fuses'
p340
S'0xcb'
p341
sS'high_fuses'
p342
S'0xd8'
p343
sS'low_fuses'
p344
S'0xff'
p345
sS'lock_bits'
p346
S'0x2F'
p347
sS'file'
p348
S'Caterina-Leonardo.hex'
p349
sS'path'
p350
S'caterina'
p351
sS'unlock_bits'
p352
S'0x3F'
p353
ssS'upload'
p354
(dp355
S'protocol'
p356
S'avr109'
p357
sS'maximum_size'
p358
S'28672'
p359
sS'speed'
p360
S'57600'
p361
sS'disable_flushing'
p362
S'true'
p363
ssS'name'
p364
S'Arduino Leonardo'
p365
saa(lp366
S'mini328'
p367
a(dp368
S'build'
p369
(dp370
S'core'
p371
S'arduino'
p372
sS'mcu'
p373
S'atmega328p'
p374
sS'f_cpu'
p375
S'16000000L'
p376
sS'variant'
p377
S'eightanaloginputs'
p378
ssS'bootloader'
p379
(dp380
S'extended_fuses'
p381
S'0x05'
p382
sS'high_fuses'
p383
S'0xd8'
p384
sS'low_fuses'
p385
S'0xff'
p386
sS'lock_bits'
p387
S'0x0F'
p388
sS'file'
p389
S'optiboot_atmega328-Mini.hex'
p390
sS'path'
p391
S'optiboot'
p392
sS'unlock_bits'
p393
S'0x3F'
p394
ssS'upload'
p395
(dp396
S'protocol'
p397
S'arduino'
p398
sS'maximum_size'
p399
S'28672'
p400
sS'speed'
p401
S'115200'
p402
ssS'name'
p403
S'Arduino Mini w/ ATmega328'
p404
saa(lp405
S'mini'
p406
a(dp407
S'build'
p408
(dp409
S'core'
p410
S'arduino'
p411
sS'mcu'
p412
S'atmega168'
p413
sS'f_cpu'
p414
S'16000000L'
p415
sS'variant'
p416
S'eightanaloginputs'
p417
ssS'bootloader'
p418
(dp419
S'extended_fuses'
p420
S'0x00'
p421
sS'high_fuses'
p422
S'0xdd'
p423
sS'low_fuses'
p424
S'0xff'
p425
sS'lock_bits'
p426
S'0x0F'
p427
sS'file'
p428
S'ATmegaBOOT_168_ng.hex'
p429
sS'path'
p430
S'atmega'
p431
sS'unlock_bits'
p432
S'0x3F'
p433
ssS'upload'
p434
(dp435
S'protocol'
p436
S'arduino'
p437
sS'maximum_size'
p438
S'14336'
p439
sS'speed'
p440
S'19200'
p441
ssS'name'
p442
S'Arduino Mini w/ ATmega168'
p443
saa(lp444
S'ethernet'
p445
a(dp446
S'build'
p447
(dp448
S'variant'
p449
S'standard'
p450
sS'mcu'
p451
S'atmega328p'
p452
sS'f_cpu'
p453
S'16000000L'
p454
sS'core'
p455
S'arduino'
p456
ssS'bootloader'
p457
(dp458
S'extended_fuses'
p459
S'0x05'
p460
sS'high_fuses'
p461
S'0xde'
p462
sS'low_fuses'
p463
S'0xff'
p464
sS'lock_bits'
p465
S'0x0F'
p466
sS'file'
p467
S'optiboot_atmega328.hex'
p468
sS'path'
p469
S'optiboot'
p470
sS'unlock_bits'
p471
S'0x3F'
p472
ssS'upload'
p473
(dp474
S'protocol'
p475
S'arduino'
p476
sS'maximum_size'
p477
S'32256'
p478
sS'speed'
p479
S'115200'
p480
ssS'name'
p481
S'Arduino Ethernet'
p482
saa(lp483
S'fio'
p484
a(dp485
S'build'
p486
(dp487
S'core'
p488
S'arduino'
p489
sS'mcu'
p490
S'atmega328p'
p491
sS'f_cpu'
p492
S'8000000L'
p493
sS'variant'
p494
S'eightanaloginputs'
p495
ssS'bootloader'
p496
(dp497
S'extended_fuses'
p498
S'0x05'
p499
sS'high_fuses'
p500
S'0xDA'
p501
sS'low_fuses'
p502
S'0xFF'
p503
sS'lock_bits'
p504
S'0x0F'
p505
sS'file'
p506
S'ATmegaBOOT_168_atmega328_pro_8MHz.hex'
p507
sS'path'
p508
S'arduino:atmega'
p509
sS'unlock_bits'
p510
S'0x3F'
p511
ssS'upload'
p512
(dp513
S'protocol'
p514
S'arduino'
p515
sS'maximum_size'
p516
S'30720'
p517
sS'speed'
p518
S'57600'
p519
ssS'name'
p520
S'Arduino Fio'
p521
saa(lp522
S'bt328'
p523
a(dp524
S'build'
p525
(dp526
S'core'
p527
S'arduino'
p528
sS'mcu'
p529
S'atmega328p'
p530
sS'f_cpu'
p531
S'16000000L'
p532
sS'variant'
p533
S'eightanaloginputs'
p534
ssS'bootloader'
p535
(dp536
S'extended_fuses'
p537
S'0x05'
p538
sS'high_fuses'
p539
S'0xd8'
p540
sS'low_fuses'
p541
S'0xff'
p542
sS'lock_bits'
p543
S'0x0F'
p544
sS'file'
p545
S'ATmegaBOOT_168_atmega328_bt.hex'
p546
sS'path'
p547
S'bt'
p548
sS'unlock_bits'
p549
S'0x3F'
p550
ssS'upload'
p551
(dp552
S'protocol'
p553
S'arduino'
p554
sS'maximum_size'
p555
S'28672'
p556
sS'speed'
p557
S'19200'
p558
sS'disable_flushing'
p559
S'true'
p560
ssS'name'
p561
S'Arduino BT w/ ATmega328'
p562
saa(lp563
S'bt'
p564
a(dp565
S'build'
p566
(dp567
S'core'
p568
S'arduino'
p569
sS'mcu'
p570
S'atmega168'
p571
sS'f_cpu'
p572
S'16000000L'
p573
sS'variant'
p574
S'eightanaloginputs'
p575
ssS'bootloader'
p576
(dp577
S'extended_fuses'
p578
S'0x00'
p579
sS'high_fuses'
p580
S'0xdd'
p581
sS'low_fuses'
p582
S'0xff'
p583
sS'lock_bits'
p584
S'0x0F'
p585
sS'file'
p586
S'ATmegaBOOT_168.hex'
p587
sS'path'
p588
S'bt'
p589
sS'unlock_bits'
p590
S'0x3F'
p591
ssS'upload'
p592
(dp593
S'protocol'
p594
S'arduino'
p595
sS'maximum_size'
p596
S'14336'
p597
sS'speed'
p598
S'19200'
p599
sS'disable_flushing'
p600
S'true'
p601
ssS'name'
p602
S'Arduino BT w/ ATmega168'
p603
saa(lp604
S'lilypad328'
p605
a(dp606
S'build'
p607
(dp608
S'core'
p609
S'arduino'
p610
sS'mcu'
p611
S'atmega328p'
p612
sS'f_cpu'
p613
S'8000000L'
p614
sS'variant'
p615
S'standard'
p616
ssS'bootloader'
p617
(dp618
S'extended_fuses'
p619
S'0x05'
p620
sS'high_fuses'
p621
S'0xDA'
p622
sS'low_fuses'
p623
S'0xFF'
p624
sS'lock_bits'
p625
S'0x0F'
p626
sS'file'
p627
S'ATmegaBOOT_168_atmega328_pro_8MHz.hex'
p628
sS'path'
p629
S'atmega'
p630
sS'unlock_bits'
p631
S'0x3F'
p632
ssS'upload'
p633
(dp634
S'protocol'
p635
S'arduino'
p636
sS'maximum_size'
p637
S'30720'
p638
sS'speed'
p639
S'57600'
p640
ssS'name'
p641
S'LilyPad Arduino w/ ATmega328'
p642
saa(lp643
S'lilypad'
p644
a(dp645
S'build'
p646
(dp647
S'core'
p648
S'arduino'
p649
sS'mcu'
p650
S'atmega168'
p651
sS'f_cpu'
p652
S'8000000L'
p653
sS'variant'
p654
S'standard'
p655
ssS'bootloader'
p656
(dp657
S'extended_fuses'
p658
S'0x00'
p659
sS'high_fuses'
p660
S'0xdd'
p661
sS'low_fuses'
p662
S'0xe2'
p663
sS'lock_bits'
p664
S'0x0F'
p665
sS'file'
p666
S'LilyPadBOOT_168.hex'
p667
sS'path'
p668
S'lilypad'
p669
sS'unlock_bits'
p670
S'0x3F'
p671
ssS'upload'
p672
(dp673
S'protocol'
p674
S'arduino'
p675
sS'maximum_size'
p676
S'14336'
p677
sS'speed'
p678
S'19200'
p679
ssS'name'
p680
S'LilyPad Arduino w/ ATmega168'
p681
saa(lp682
S'pro5v328'
p683
a(dp684
S'build'
p685
(dp686
S'core'
p687
S'arduino'
p688
sS'mcu'
p689
S'atmega328p'
p690
sS'f_cpu'
p691
S'16000000L'
p692
sS'variant'
p693
S'standard'
p694
ssS'bootloader'
p695
(dp696
S'extended_fuses'
p697
S'0x05'
p698
sS'high_fuses'
p699
S'0xDA'
p700
sS'low_fuses'
p701
S'0xFF'
p702
sS'lock_bits'
p703
S'0x0F'
p704
sS'file'
p705
S'ATmegaBOOT_168_atmega328.hex'
p706
sS'path'
p707
S'atmega'
p708
sS'unlock_bits'
p709
S'0x3F'
p710
ssS'upload'
p711
(dp712
S'protocol'
p713
S'arduino'
p714
sS'maximum_size'
p715
S'30720'
p716
sS'speed'
p717
S'57600'
p718
ssS'name'
p719
S'Arduino Pro or Pro Mini (5V, 16 MHz) w/ ATmega328'
p720
saa(lp721
S'pro5v'
p722
a(dp723
S'build'
p724
(dp725
S'core'
p726
S'arduino'
p727
sS'mcu'
p728
S'atmega168'
p729
sS'f_cpu'
p730
S'16000000L'
p731
sS'variant'
p732
S'standard'
p733
ssS'bootloader'
p734
(dp735
S'extended_fuses'
p736
S'0x00'
p737
sS'high_fuses'
p738
S'0xdd'
p739
sS'low_fuses'
p740
S'0xff'
p741
sS'lock_bits'
p742
S'0x0F'
p743
sS'file'
p744
S'ATmegaBOOT_168_diecimila.hex'
p745
sS'path'
p746
S'atmega'
p747
sS'unlock_bits'
p748
S'0x3F'
p749
ssS'upload'
p750
(dp751
S'protocol'
p752
S'arduino'
p753
sS'maximum_size'
p754
S'14336'
p755
sS'speed'
p756
S'19200'
p757
ssS'name'
p758
S'Arduino Pro or Pro Mini (5V, 16 MHz) w/ ATmega168'
p759
saa(lp760
S'pro328'
p761
a(dp762
S'build'
p763
(dp764
S'core'
p765
S'arduino'
p766
sS'mcu'
p767
S'atmega328p'
p768
sS'f_cpu'
p769
S'8000000L'
p770
sS'variant'
p771
S'standard'
p772
ssS'bootloader'
p773
(dp774
S'extended_fuses'
p775
S'0x05'
p776
sS'high_fuses'
p777
S'0xDA'
p778
sS'low_fuses'
p779
S'0xFF'
p780
sS'lock_bits'
p781
S'0x0F'
p782
sS'file'
p783
S'ATmegaBOOT_168_atmega328_pro_8MHz.hex'
p784
sS'path'
p785
S'atmega'
p786
sS'unlock_bits'
p787
S'0x3F'
p788
ssS'upload'
p789
(dp790
S'protocol'
p791
S'arduino'
p792
sS'maximum_size'
p793
S'30720'
p794
sS'speed'
p795
S'57600'
p796
ssS'name'
p797
S'Arduino Pro or Pro Mini (3.3V, 8 MHz) w/ ATmega328'
p798
saa(lp799
S'pro'
p800
a(dp801
S'build'
p802
(dp803
S'core'
p804
S'arduino'
p805
sS'mcu'
p806
S'atmega168'
p807
sS'f_cpu'
p808
S'8000000L'
p809
sS'variant'
p810
S'standard'
p811
ssS'bootloader'
p812
(dp813
S'extended_fuses'
p814
S'0x00'
p815
sS'high_fuses'
p816
S'0xdd'
p817
sS'low_fuses'
p818
S'0xc6'
p819
sS'lock_bits'
p820
S'0x0F'
p821
sS'file'
p822
S'ATmegaBOOT_168_pro_8MHz.hex'
p823
sS'path'
p824
S'atmega'
p825
sS'unlock_bits'
p826
S'0x3F'
p827
ssS'upload'
p828
(dp829
S'protocol'
p830
S'arduino'
p831
sS'maximum_size'
p832
S'14336'
p833
sS'speed'
p834
S'19200'
p835
ssS'name'
p836
S'Arduino Pro or Pro Mini (3.3V, 8 MHz) w/ ATmega168'
p837
saa(lp838
S'atmega168'
p839
a(dp840
S'build'
p841
(dp842
S'core'
p843
S'arduino'
p844
sS'mcu'
p845
S'atmega168'
p846
sS'f_cpu'
p847
S'16000000L'
p848
sS'variant'
p849
S'standard'
p850
ssS'bootloader'
p851
(dp852
S'extended_fuses'
p853
S'0x00'
p854
sS'high_fuses'
p855
S'0xdd'
p856
sS'low_fuses'
p857
S'0xff'
p858
sS'lock_bits'
p859
S'0x0F'
p860
sS'file'
p861
S'ATmegaBOOT_168_ng.hex'
p862
sS'path'
p863
S'atmega'
p864
sS'unlock_bits'
p865
S'0x3F'
p866
ssS'upload'
p867
(dp868
S'protocol'
p869
S'arduino'
p870
sS'maximum_size'
p871
S'14336'
p872
sS'speed'
p873
S'19200'
p874
ssS'name'
p875
S'Arduino NG or older w/ ATmega168'
p876
saa(lp877
S'atmega8'
p878
a(dp879
S'build'
p880
(dp881
S'core'
p882
S'arduino'
p883
sS'mcu'
p884
S'atmega8'
p885
sS'f_cpu'
p886
S'16000000L'
p887
sS'variant'
p888
S'standard'
p889
ssS'bootloader'
p890
(dp891
S'high_fuses'
p892
S'0xca'
p893
sS'low_fuses'
p894
S'0xdf'
p895
sS'lock_bits'
p896
S'0x0F'
p897
sS'file'
p898
S'ATmegaBOOT.hex'
p899
sS'path'
p900
S'atmega8'
p901
sS'unlock_bits'
p902
S'0x3F'
p903
ssS'upload'
p904
(dp905
S'protocol'
p906
S'arduino'
p907
sS'maximum_size'
p908
S'7168'
p909
sS'speed'
p910
S'19200'
p911
ssS'name'
p912
S'Arduino NG or older w/ ATmega8'
p913
saatp914
Rp915
(dp916
S'default'
p917
S'uno'
p918
sbtp919
a(S'used_libs'
p920
(lp921
S'/usr/share/arduino/hardware/arduino/cores/arduino'
p922
atp923
a(S'arduino_libraries_dir'
p924
S'/usr/share/arduino/libraries'
p925
tp926
a(S'cc'
p927
S'/usr/bin/avr-gcc'
p928
tp929
a(S'cflags'
p930
g2
(g3
g4
(lp931
g8
aS'-ffunction-sections'
p932
aS'-fdata-sections'
p933
aS'-g'
p934
ag6
aS'-w'
p935
aS'-DF_CPU=16000000L'
p936
aS'-DARDUINO=100'
p937
aS'-I/usr/share/arduino/hardware/arduino/cores/arduino'
p938
aS'-DUSB_VID=0x2341'
p939
aS'-DUSB_PID=0x8036'
p940
aS'-I/usr/share/arduino/hardware/arduino/variants/leonardo'
p941
aS'-I/usr/share/arduino/hardware/arduino/cores/arduino'
p942
atp943
Rp944
tp945
a(S'cxxflags'
p946
g2
(g3
g4
(lp947
S'-fno-exceptions'
p948
atp949
Rp950
tp951
a(S'arduino_variants_dir'
p952
S'/usr/share/arduino/hardware/arduino/variants'
p953
tp954
a(S'serial'
p955
S'/usr/bin/picocom'
p956
tp957
a(S'stty'
p958
S'/bin/stty'
p959
tp960
a(S'version.txt'
p961
S'/usr/share/arduino/lib/version.txt'
p962
tp963
a(S'arduino_core_dir'
p964
g922
tp965
a(S'boards.txt'
p966
S'/usr/share/arduino/hardware/arduino/boards.txt'
p967
tp968
a(S'avrdude.conf'
p969
S'/usr/share/arduino/hardware/tools/avrdude.conf'
p970
tp971
a(S'deps'
p972
g2
(g3
g4
(lp973
S'.build/leonardo/src/dependencies.d'
p974
aS'.build/leonardo/arduino/dependencies.d'
p975
atp976
Rp977
tp978
a.